
wrong_hex_converter.elf:     file format elf64-littleriscv
wrong_hex_converter.elf
architecture: riscv:rv64, flags 0x00000102:
EXEC_P, D_PAGED
start address 0x0000000000010118

Program Header:
0x70000003 off    0x00000000000029da vaddr 0x0000000000000000 paddr 0x0000000000000000 align 2**0
         filesz 0x0000000000000053 memsz 0x0000000000000000 flags r--
    LOAD off    0x0000000000000000 vaddr 0x0000000000010000 paddr 0x0000000000010000 align 2**12
         filesz 0x0000000000001fb9 memsz 0x0000000000001fb9 flags r-x
    LOAD off    0x0000000000002000 vaddr 0x0000000000012000 paddr 0x0000000000012000 align 2**12
         filesz 0x00000000000009c8 memsz 0x0000000000000fe0 flags rw-

Sections:
Idx Name              Size      VMA               LMA               File off  Algn  Flags
  0 .text             00001eac  00000000000100e8  00000000000100e8  000000e8  2**1  CONTENTS, ALLOC, LOAD, READONLY, CODE
  1 .rodata           00000021  0000000000011f98  0000000000011f98  00001f98  2**3  CONTENTS, ALLOC, LOAD, READONLY, DATA
  2 .eh_frame         00000004  0000000000012000  0000000000012000  00002000  2**3  CONTENTS, ALLOC, LOAD, DATA
  3 .init_array       00000010  0000000000012008  0000000000012008  00002008  2**3  CONTENTS, ALLOC, LOAD, DATA
  4 .fini_array       00000008  0000000000012018  0000000000012018  00002018  2**3  CONTENTS, ALLOC, LOAD, DATA
  5 .data             00000980  0000000000012020  0000000000012020  00002020  2**3  CONTENTS, ALLOC, LOAD, DATA
  6 .sdata            00000028  00000000000129a0  00000000000129a0  000029a0  2**3  CONTENTS, ALLOC, LOAD, DATA
  7 .sbss             00000078  00000000000129c8  00000000000129c8  000029c8  2**3  ALLOC
  8 .bss              000005a0  0000000000012a40  0000000000012a40  000029c8  2**3  ALLOC
  9 .comment          00000012  0000000000000000  0000000000000000  000029c8  2**0  CONTENTS, READONLY
 10 .riscv.attributes 00000053  0000000000000000  0000000000000000  000029da  2**0  CONTENTS, READONLY
SYMBOL TABLE:
no symbols



Disassembly of section .text:

00000000000100e8 <.text>:
   100e8:	1141                	addi	sp,sp,-16
   100ea:	4581                	li	a1,0
   100ec:	e022                	sd	s0,0(sp)
   100ee:	e406                	sd	ra,8(sp)
   100f0:	842a                	mv	s0,a0
   100f2:	0d7000ef          	jal	0x109c8
   100f6:	1a81b783          	ld	a5,424(gp)
   100fa:	c391                	beqz	a5,0x100fe
   100fc:	9782                	jalr	a5
   100fe:	8522                	mv	a0,s0
   10100:	4e5010ef          	jal	0x11de4
   10104:	00000793          	li	a5,0
   10108:	c799                	beqz	a5,0x10116
   1010a:	00002517          	auipc	a0,0x2
   1010e:	9d850513          	addi	a0,a0,-1576 # 0x11ae2
   10112:	1a10006f          	j	0x10ab2
   10116:	8082                	ret
   10118:	00002197          	auipc	gp,0x2
   1011c:	70818193          	addi	gp,gp,1800 # 0x12820
   10120:	1a818513          	addi	a0,gp,424
   10124:	7c018613          	addi	a2,gp,1984
   10128:	8e09                	sub	a2,a2,a0
   1012a:	4581                	li	a1,0
   1012c:	7f2000ef          	jal	0x1091e
   10130:	00001517          	auipc	a0,0x1
   10134:	98250513          	addi	a0,a0,-1662 # 0x10ab2
   10138:	c519                	beqz	a0,0x10146
   1013a:	00002517          	auipc	a0,0x2
   1013e:	9a850513          	addi	a0,a0,-1624 # 0x11ae2
   10142:	171000ef          	jal	0x10ab2
   10146:	756000ef          	jal	0x1089c
   1014a:	4502                	lw	a0,0(sp)
   1014c:	002c                	addi	a1,sp,8
   1014e:	4601                	li	a2,0
   10150:	056000ef          	jal	0x101a6
   10154:	bf51                	j	0x100e8
   10156:	1141                	addi	sp,sp,-16
   10158:	e022                	sd	s0,0(sp)
   1015a:	22018413          	addi	s0,gp,544
   1015e:	00044783          	lbu	a5,0(s0)
   10162:	e406                	sd	ra,8(sp)
   10164:	ef99                	bnez	a5,0x10182
   10166:	00000793          	li	a5,0
   1016a:	cb89                	beqz	a5,0x1017c
   1016c:	00002517          	auipc	a0,0x2
   10170:	e9450513          	addi	a0,a0,-364 # 0x12000
   10174:	00000097          	auipc	ra,0x0
   10178:	000000e7          	jalr	zero # 0x0
   1017c:	4785                	li	a5,1
   1017e:	00f40023          	sb	a5,0(s0)
   10182:	60a2                	ld	ra,8(sp)
   10184:	6402                	ld	s0,0(sp)
   10186:	0141                	addi	sp,sp,16
   10188:	8082                	ret
   1018a:	00000793          	li	a5,0
   1018e:	cb99                	beqz	a5,0x101a4
   10190:	22818593          	addi	a1,gp,552
   10194:	00002517          	auipc	a0,0x2
   10198:	e6c50513          	addi	a0,a0,-404 # 0x12000
   1019c:	00000317          	auipc	t1,0x0
   101a0:	00000067          	jr	zero # 0x0
   101a4:	8082                	ret
   101a6:	711d                	addi	sp,sp,-96
   101a8:	ec86                	sd	ra,88(sp)
   101aa:	e8a2                	sd	s0,80(sp)
   101ac:	1080                	addi	s0,sp,96
   101ae:	87aa                	mv	a5,a0
   101b0:	fab43023          	sd	a1,-96(s0)
   101b4:	faf42623          	sw	a5,-84(s0)
   101b8:	67c9                	lui	a5,0x12
   101ba:	f9878793          	addi	a5,a5,-104 # 0x11f98
   101be:	6398                	ld	a4,0(a5)
   101c0:	fce43823          	sd	a4,-48(s0)
   101c4:	0087d703          	lhu	a4,8(a5)
   101c8:	fce41c23          	sh	a4,-40(s0)
   101cc:	00a7c783          	lbu	a5,10(a5)
   101d0:	fcf40d23          	sb	a5,-38(s0)
   101d4:	67c9                	lui	a5,0x12
   101d6:	fa878793          	addi	a5,a5,-88 # 0x11fa8
   101da:	6398                	ld	a4,0(a5)
   101dc:	fae43c23          	sd	a4,-72(s0)
   101e0:	6798                	ld	a4,8(a5)
   101e2:	fce43023          	sd	a4,-64(s0)
   101e6:	0107c783          	lbu	a5,16(a5)
   101ea:	fcf40423          	sb	a5,-56(s0)
   101ee:	fe043423          	sd	zero,-24(s0)
   101f2:	a09d                	j	0x10258
   101f4:	fe843783          	ld	a5,-24(s0)
   101f8:	17c1                	addi	a5,a5,-16
   101fa:	97a2                	add	a5,a5,s0
   101fc:	fe078783          	lb	a5,-32(a5)
   10200:	fef42223          	sw	a5,-28(s0)
   10204:	fe442783          	lw	a5,-28(s0)
   10208:	4047d79b          	sraiw	a5,a5,0x4
   1020c:	fef42023          	sw	a5,-32(s0)
   10210:	fe042783          	lw	a5,-32(s0)
   10214:	0047979b          	slliw	a5,a5,0x4
   10218:	2781                	sext.w	a5,a5
   1021a:	fe442703          	lw	a4,-28(s0)
   1021e:	40f707bb          	subw	a5,a4,a5
   10222:	fcf42e23          	sw	a5,-36(s0)
   10226:	fe042783          	lw	a5,-32(s0)
   1022a:	17c1                	addi	a5,a5,-16
   1022c:	97a2                	add	a5,a5,s0
   1022e:	fc87c783          	lbu	a5,-56(a5)
   10232:	2781                	sext.w	a5,a5
   10234:	853e                	mv	a0,a5
   10236:	41a000ef          	jal	0x10650
   1023a:	fdc42783          	lw	a5,-36(s0)
   1023e:	17c1                	addi	a5,a5,-16
   10240:	97a2                	add	a5,a5,s0
   10242:	fc87c783          	lbu	a5,-56(a5)
   10246:	2781                	sext.w	a5,a5
   10248:	853e                	mv	a0,a5
   1024a:	406000ef          	jal	0x10650
   1024e:	fe843783          	ld	a5,-24(s0)
   10252:	0785                	addi	a5,a5,1
   10254:	fef43423          	sd	a5,-24(s0)
   10258:	fe843703          	ld	a4,-24(s0)
   1025c:	47a9                	li	a5,10
   1025e:	f8e7fbe3          	bgeu	a5,a4,0x101f4
   10262:	4529                	li	a0,10
   10264:	3ec000ef          	jal	0x10650
   10268:	4781                	li	a5,0
   1026a:	853e                	mv	a0,a5
   1026c:	60e6                	ld	ra,88(sp)
   1026e:	6446                	ld	s0,80(sp)
   10270:	6125                	addi	sp,sp,96
   10272:	8082                	ret
   10274:	00002617          	auipc	a2,0x2
   10278:	dac60613          	addi	a2,a2,-596 # 0x12020
   1027c:	00001597          	auipc	a1,0x1
   10280:	17a58593          	addi	a1,a1,378 # 0x113f6
   10284:	00002517          	auipc	a0,0x2
   10288:	db450513          	addi	a0,a0,-588 # 0x12038
   1028c:	ae35                	j	0x105c8
   1028e:	650c                	ld	a1,8(a0)
   10290:	1141                	addi	sp,sp,-16
   10292:	e022                	sd	s0,0(sp)
   10294:	e406                	sd	ra,8(sp)
   10296:	25818793          	addi	a5,gp,600
   1029a:	842a                	mv	s0,a0
   1029c:	00f58463          	beq	a1,a5,0x102a4
   102a0:	156010ef          	jal	0x113f6
   102a4:	680c                	ld	a1,16(s0)
   102a6:	31018793          	addi	a5,gp,784
   102aa:	00f58563          	beq	a1,a5,0x102b4
   102ae:	8522                	mv	a0,s0
   102b0:	146010ef          	jal	0x113f6
   102b4:	6c0c                	ld	a1,24(s0)
   102b6:	3c818793          	addi	a5,gp,968
   102ba:	00f58863          	beq	a1,a5,0x102ca
   102be:	8522                	mv	a0,s0
   102c0:	6402                	ld	s0,0(sp)
   102c2:	60a2                	ld	ra,8(sp)
   102c4:	0141                	addi	sp,sp,16
   102c6:	1300106f          	j	0x113f6
   102ca:	60a2                	ld	ra,8(sp)
   102cc:	6402                	ld	s0,0(sp)
   102ce:	0141                	addi	sp,sp,16
   102d0:	8082                	ret
   102d2:	0b05a783          	lw	a5,176(a1)
   102d6:	8b85                	andi	a5,a5,1
   102d8:	e791                	bnez	a5,0x102e4
   102da:	0105d783          	lhu	a5,16(a1)
   102de:	2007f793          	andi	a5,a5,512
   102e2:	c399                	beqz	a5,0x102e8
   102e4:	4501                	li	a0,0
   102e6:	8082                	ret
   102e8:	71c8                	ld	a0,160(a1)
   102ea:	1141                	addi	sp,sp,-16
   102ec:	e406                	sd	ra,8(sp)
   102ee:	622000ef          	jal	0x10910
   102f2:	60a2                	ld	ra,8(sp)
   102f4:	4501                	li	a0,0
   102f6:	0141                	addi	sp,sp,16
   102f8:	8082                	ret
   102fa:	0b05a783          	lw	a5,176(a1)
   102fe:	8b85                	andi	a5,a5,1
   10300:	e791                	bnez	a5,0x1030c
   10302:	0105d783          	lhu	a5,16(a1)
   10306:	2007f793          	andi	a5,a5,512
   1030a:	c399                	beqz	a5,0x10310
   1030c:	4501                	li	a0,0
   1030e:	8082                	ret
   10310:	71c8                	ld	a0,160(a1)
   10312:	1141                	addi	sp,sp,-16
   10314:	e406                	sd	ra,8(sp)
   10316:	606000ef          	jal	0x1091c
   1031a:	60a2                	ld	ra,8(sp)
   1031c:	4501                	li	a0,0
   1031e:	0141                	addi	sp,sp,16
   10320:	8082                	ret
   10322:	7179                	addi	sp,sp,-48
   10324:	00000797          	auipc	a5,0x0
   10328:	f5078793          	addi	a5,a5,-176 # 0x10274
   1032c:	f406                	sd	ra,40(sp)
   1032e:	f022                	sd	s0,32(sp)
   10330:	ec26                	sd	s1,24(sp)
   10332:	25818413          	addi	s0,gp,600
   10336:	e84a                	sd	s2,16(sp)
   10338:	e44e                	sd	s3,8(sp)
   1033a:	e052                	sd	s4,0(sp)
   1033c:	4621                	li	a2,8
   1033e:	4581                	li	a1,0
   10340:	1af1b423          	sd	a5,424(gp)
   10344:	30018513          	addi	a0,gp,768
   10348:	4791                	li	a5,4
   1034a:	c81c                	sw	a5,16(s0)
   1034c:	00043023          	sd	zero,0(s0)
   10350:	00043423          	sd	zero,8(s0)
   10354:	0a042823          	sw	zero,176(s0)
   10358:	00043c23          	sd	zero,24(s0)
   1035c:	02042023          	sw	zero,32(s0)
   10360:	02042423          	sw	zero,40(s0)
   10364:	5ba000ef          	jal	0x1091e
   10368:	00000a17          	auipc	s4,0x0
   1036c:	2f6a0a13          	addi	s4,s4,758 # 0x1065e
   10370:	00000997          	auipc	s3,0x0
   10374:	32a98993          	addi	s3,s3,810 # 0x1069a
   10378:	00000917          	auipc	s2,0x0
   1037c:	37490913          	addi	s2,s2,884 # 0x106ec
   10380:	00000497          	auipc	s1,0x0
   10384:	3be48493          	addi	s1,s1,958 # 0x1073e
   10388:	2f818513          	addi	a0,gp,760
   1038c:	03443c23          	sd	s4,56(s0)
   10390:	05343023          	sd	s3,64(s0)
   10394:	05243423          	sd	s2,72(s0)
   10398:	e824                	sd	s1,80(s0)
   1039a:	f800                	sd	s0,48(s0)
   1039c:	56c000ef          	jal	0x10908
   103a0:	67c1                	lui	a5,0x10
   103a2:	07a5                	addi	a5,a5,9 # 0x10009
   103a4:	4621                	li	a2,8
   103a6:	4581                	li	a1,0
   103a8:	3b818513          	addi	a0,gp,952
   103ac:	0cf42423          	sw	a5,200(s0)
   103b0:	0a043c23          	sd	zero,184(s0)
   103b4:	0c043023          	sd	zero,192(s0)
   103b8:	16042423          	sw	zero,360(s0)
   103bc:	0c043823          	sd	zero,208(s0)
   103c0:	0c042c23          	sw	zero,216(s0)
   103c4:	0e042023          	sw	zero,224(s0)
   103c8:	556000ef          	jal	0x1091e
   103cc:	31018793          	addi	a5,gp,784
   103d0:	3b018513          	addi	a0,gp,944
   103d4:	f47c                	sd	a5,232(s0)
   103d6:	0f443823          	sd	s4,240(s0)
   103da:	0f343c23          	sd	s3,248(s0)
   103de:	11243023          	sd	s2,256(s0)
   103e2:	10943423          	sd	s1,264(s0)
   103e6:	522000ef          	jal	0x10908
   103ea:	000207b7          	lui	a5,0x20
   103ee:	07c9                	addi	a5,a5,18 # 0x20012
   103f0:	4621                	li	a2,8
   103f2:	4581                	li	a1,0
   103f4:	47018513          	addi	a0,gp,1136
   103f8:	18f42023          	sw	a5,384(s0)
   103fc:	16043823          	sd	zero,368(s0)
   10400:	16043c23          	sd	zero,376(s0)
   10404:	22042023          	sw	zero,544(s0)
   10408:	18043423          	sd	zero,392(s0)
   1040c:	18042823          	sw	zero,400(s0)
   10410:	18042c23          	sw	zero,408(s0)
   10414:	50a000ef          	jal	0x1091e
   10418:	3c818793          	addi	a5,gp,968
   1041c:	1b443423          	sd	s4,424(s0)
   10420:	1b343823          	sd	s3,432(s0)
   10424:	1b243c23          	sd	s2,440(s0)
   10428:	1c943023          	sd	s1,448(s0)
   1042c:	1af43023          	sd	a5,416(s0)
   10430:	7402                	ld	s0,32(sp)
   10432:	70a2                	ld	ra,40(sp)
   10434:	64e2                	ld	s1,24(sp)
   10436:	6942                	ld	s2,16(sp)
   10438:	69a2                	ld	s3,8(sp)
   1043a:	6a02                	ld	s4,0(sp)
   1043c:	46818513          	addi	a0,gp,1128
   10440:	6145                	addi	sp,sp,48
   10442:	a1d9                	j	0x10908
   10444:	7179                	addi	sp,sp,-48
   10446:	e44e                	sd	s3,8(sp)
   10448:	89aa                	mv	s3,a0
   1044a:	1f018513          	addi	a0,gp,496
   1044e:	f406                	sd	ra,40(sp)
   10450:	f022                	sd	s0,32(sp)
   10452:	ec26                	sd	s1,24(sp)
   10454:	e84a                	sd	s2,16(sp)
   10456:	4ba000ef          	jal	0x10910
   1045a:	1a81b783          	ld	a5,424(gp)
   1045e:	cfd5                	beqz	a5,0x1051a
   10460:	00002497          	auipc	s1,0x2
   10464:	bc048493          	addi	s1,s1,-1088 # 0x12020
   10468:	0b800913          	li	s2,184
   1046c:	4498                	lw	a4,8(s1)
   1046e:	6880                	ld	s0,16(s1)
   10470:	06e05c63          	blez	a4,0x104e8
   10474:	1702                	slli	a4,a4,0x20
   10476:	9301                	srli	a4,a4,0x20
   10478:	03270733          	mul	a4,a4,s2
   1047c:	9722                	add	a4,a4,s0
   1047e:	a029                	j	0x10488
   10480:	0b840413          	addi	s0,s0,184
   10484:	06870263          	beq	a4,s0,0x104e8
   10488:	01041783          	lh	a5,16(s0)
   1048c:	fbf5                	bnez	a5,0x10480
   1048e:	77c1                	lui	a5,0xffff0
   10490:	0785                	addi	a5,a5,1 # 0xffffffffffff0001
   10492:	c81c                	sw	a5,16(s0)
   10494:	0a040513          	addi	a0,s0,160
   10498:	0a042823          	sw	zero,176(s0)
   1049c:	46c000ef          	jal	0x10908
   104a0:	1f018513          	addi	a0,gp,496
   104a4:	478000ef          	jal	0x1091c
   104a8:	4621                	li	a2,8
   104aa:	00043023          	sd	zero,0(s0)
   104ae:	00043423          	sd	zero,8(s0)
   104b2:	00043c23          	sd	zero,24(s0)
   104b6:	02042023          	sw	zero,32(s0)
   104ba:	02042423          	sw	zero,40(s0)
   104be:	4581                	li	a1,0
   104c0:	0a840513          	addi	a0,s0,168
   104c4:	45a000ef          	jal	0x1091e
   104c8:	04043c23          	sd	zero,88(s0)
   104cc:	06042023          	sw	zero,96(s0)
   104d0:	06043c23          	sd	zero,120(s0)
   104d4:	08042023          	sw	zero,128(s0)
   104d8:	70a2                	ld	ra,40(sp)
   104da:	8522                	mv	a0,s0
   104dc:	7402                	ld	s0,32(sp)
   104de:	64e2                	ld	s1,24(sp)
   104e0:	6942                	ld	s2,16(sp)
   104e2:	69a2                	ld	s3,8(sp)
   104e4:	6145                	addi	sp,sp,48
   104e6:	8082                	ret
   104e8:	6080                	ld	s0,0(s1)
   104ea:	c019                	beqz	s0,0x104f0
   104ec:	84a2                	mv	s1,s0
   104ee:	bfbd                	j	0x1046c
   104f0:	2f800593          	li	a1,760
   104f4:	854e                	mv	a0,s3
   104f6:	0e5000ef          	jal	0x10dda
   104fa:	842a                	mv	s0,a0
   104fc:	c115                	beqz	a0,0x10520
   104fe:	0561                	addi	a0,a0,24
   10500:	4791                	li	a5,4
   10502:	00043023          	sd	zero,0(s0)
   10506:	c41c                	sw	a5,8(s0)
   10508:	e808                	sd	a0,16(s0)
   1050a:	2e000613          	li	a2,736
   1050e:	4581                	li	a1,0
   10510:	40e000ef          	jal	0x1091e
   10514:	e080                	sd	s0,0(s1)
   10516:	84a2                	mv	s1,s0
   10518:	bf91                	j	0x1046c
   1051a:	e09ff0ef          	jal	0x10322
   1051e:	b789                	j	0x10460
   10520:	0004b023          	sd	zero,0(s1)
   10524:	1f018513          	addi	a0,gp,496
   10528:	3f4000ef          	jal	0x1091c
   1052c:	47b1                	li	a5,12
   1052e:	00f9a023          	sw	a5,0(s3)
   10532:	b75d                	j	0x104d8
   10534:	1141                	addi	sp,sp,-16
   10536:	e022                	sd	s0,0(sp)
   10538:	842a                	mv	s0,a0
   1053a:	1f018513          	addi	a0,gp,496
   1053e:	e406                	sd	ra,8(sp)
   10540:	3d0000ef          	jal	0x10910
   10544:	643c                	ld	a5,72(s0)
   10546:	eb89                	bnez	a5,0x10558
   10548:	00000797          	auipc	a5,0x0
   1054c:	d4678793          	addi	a5,a5,-698 # 0x1028e
   10550:	e43c                	sd	a5,72(s0)
   10552:	1a81b783          	ld	a5,424(gp)
   10556:	c799                	beqz	a5,0x10564
   10558:	6402                	ld	s0,0(sp)
   1055a:	60a2                	ld	ra,8(sp)
   1055c:	1f018513          	addi	a0,gp,496
   10560:	0141                	addi	sp,sp,16
   10562:	ae6d                	j	0x1091c
   10564:	dbfff0ef          	jal	0x10322
   10568:	6402                	ld	s0,0(sp)
   1056a:	60a2                	ld	ra,8(sp)
   1056c:	1f018513          	addi	a0,gp,496
   10570:	0141                	addi	sp,sp,16
   10572:	a66d                	j	0x1091c
   10574:	1f018513          	addi	a0,gp,496
   10578:	ae61                	j	0x10910
   1057a:	1f018513          	addi	a0,gp,496
   1057e:	ae79                	j	0x1091c
   10580:	1141                	addi	sp,sp,-16
   10582:	1f018513          	addi	a0,gp,496
   10586:	e406                	sd	ra,8(sp)
   10588:	388000ef          	jal	0x10910
   1058c:	60a2                	ld	ra,8(sp)
   1058e:	00002617          	auipc	a2,0x2
   10592:	a9260613          	addi	a2,a2,-1390 # 0x12020
   10596:	00000597          	auipc	a1,0x0
   1059a:	d3c58593          	addi	a1,a1,-708 # 0x102d2
   1059e:	4501                	li	a0,0
   105a0:	0141                	addi	sp,sp,16
   105a2:	a01d                	j	0x105c8
   105a4:	1141                	addi	sp,sp,-16
   105a6:	00002617          	auipc	a2,0x2
   105aa:	a7a60613          	addi	a2,a2,-1414 # 0x12020
   105ae:	00000597          	auipc	a1,0x0
   105b2:	d4c58593          	addi	a1,a1,-692 # 0x102fa
   105b6:	4501                	li	a0,0
   105b8:	e406                	sd	ra,8(sp)
   105ba:	00e000ef          	jal	0x105c8
   105be:	60a2                	ld	ra,8(sp)
   105c0:	1f018513          	addi	a0,gp,496
   105c4:	0141                	addi	sp,sp,16
   105c6:	ae99                	j	0x1091c
   105c8:	715d                	addi	sp,sp,-80
   105ca:	f84a                	sd	s2,48(sp)
   105cc:	f44e                	sd	s3,40(sp)
   105ce:	f052                	sd	s4,32(sp)
   105d0:	ec56                	sd	s5,24(sp)
   105d2:	e85a                	sd	s6,16(sp)
   105d4:	e45e                	sd	s7,8(sp)
   105d6:	e062                	sd	s8,0(sp)
   105d8:	e486                	sd	ra,72(sp)
   105da:	e0a2                	sd	s0,64(sp)
   105dc:	fc26                	sd	s1,56(sp)
   105de:	8a2a                	mv	s4,a0
   105e0:	8b2e                	mv	s6,a1
   105e2:	89b2                	mv	s3,a2
   105e4:	4901                	li	s2,0
   105e6:	0b800b93          	li	s7,184
   105ea:	4c05                	li	s8,1
   105ec:	5afd                	li	s5,-1
   105ee:	0089a483          	lw	s1,8(s3)
   105f2:	0109b403          	ld	s0,16(s3)
   105f6:	02905963          	blez	s1,0x10628
   105fa:	1482                	slli	s1,s1,0x20
   105fc:	9081                	srli	s1,s1,0x20
   105fe:	037484b3          	mul	s1,s1,s7
   10602:	94a2                	add	s1,s1,s0
   10604:	01045783          	lhu	a5,16(s0)
   10608:	00fc7c63          	bgeu	s8,a5,0x10620
   1060c:	01241783          	lh	a5,18(s0)
   10610:	85a2                	mv	a1,s0
   10612:	8552                	mv	a0,s4
   10614:	01578663          	beq	a5,s5,0x10620
   10618:	9b02                	jalr	s6
   1061a:	01256933          	or	s2,a0,s2
   1061e:	2901                	sext.w	s2,s2
   10620:	0b840413          	addi	s0,s0,184
   10624:	fe9410e3          	bne	s0,s1,0x10604
   10628:	0009b983          	ld	s3,0(s3)
   1062c:	fc0991e3          	bnez	s3,0x105ee
   10630:	60a6                	ld	ra,72(sp)
   10632:	6406                	ld	s0,64(sp)
   10634:	74e2                	ld	s1,56(sp)
   10636:	79a2                	ld	s3,40(sp)
   10638:	7a02                	ld	s4,32(sp)
   1063a:	6ae2                	ld	s5,24(sp)
   1063c:	6b42                	ld	s6,16(sp)
   1063e:	6ba2                	ld	s7,8(sp)
   10640:	6c02                	ld	s8,0(sp)
   10642:	854a                	mv	a0,s2
   10644:	7942                	ld	s2,48(sp)
   10646:	6161                	addi	sp,sp,80
   10648:	8082                	ret
   1064a:	6910                	ld	a2,16(a0)
   1064c:	1500106f          	j	0x1179c
   10650:	1881b783          	ld	a5,392(gp)
   10654:	6b90                	ld	a2,16(a5)
   10656:	85aa                	mv	a1,a0
   10658:	853e                	mv	a0,a5
   1065a:	1420106f          	j	0x1179c
   1065e:	1141                	addi	sp,sp,-16
   10660:	e022                	sd	s0,0(sp)
   10662:	842e                	mv	s0,a1
   10664:	01259583          	lh	a1,18(a1)
   10668:	e406                	sd	ra,8(sp)
   1066a:	1c6000ef          	jal	0x10830
   1066e:	00054963          	bltz	a0,0x10680
   10672:	685c                	ld	a5,144(s0)
   10674:	60a2                	ld	ra,8(sp)
   10676:	97aa                	add	a5,a5,a0
   10678:	e85c                	sd	a5,144(s0)
   1067a:	6402                	ld	s0,0(sp)
   1067c:	0141                	addi	sp,sp,16
   1067e:	8082                	ret
   10680:	01045783          	lhu	a5,16(s0)
   10684:	777d                	lui	a4,0xfffff
   10686:	177d                	addi	a4,a4,-1 # 0xffffffffffffefff
   10688:	8ff9                	and	a5,a5,a4
   1068a:	60a2                	ld	ra,8(sp)
   1068c:	00f41823          	sh	a5,16(s0)
   10690:	6402                	ld	s0,0(sp)
   10692:	0141                	addi	sp,sp,16
   10694:	8082                	ret
   10696:	4501                	li	a0,0
   10698:	8082                	ret
   1069a:	01059783          	lh	a5,16(a1)
   1069e:	7179                	addi	sp,sp,-48
   106a0:	f022                	sd	s0,32(sp)
   106a2:	ec26                	sd	s1,24(sp)
   106a4:	e84a                	sd	s2,16(sp)
   106a6:	e44e                	sd	s3,8(sp)
   106a8:	f406                	sd	ra,40(sp)
   106aa:	1007f713          	andi	a4,a5,256
   106ae:	842e                	mv	s0,a1
   106b0:	84aa                	mv	s1,a0
   106b2:	8932                	mv	s2,a2
   106b4:	89b6                	mv	s3,a3
   106b6:	e315                	bnez	a4,0x106da
   106b8:	777d                	lui	a4,0xfffff
   106ba:	177d                	addi	a4,a4,-1 # 0xffffffffffffefff
   106bc:	8ff9                	and	a5,a5,a4
   106be:	01241583          	lh	a1,18(s0)
   106c2:	00f41823          	sh	a5,16(s0)
   106c6:	7402                	ld	s0,32(sp)
   106c8:	70a2                	ld	ra,40(sp)
   106ca:	86ce                	mv	a3,s3
   106cc:	864a                	mv	a2,s2
   106ce:	69a2                	ld	s3,8(sp)
   106d0:	6942                	ld	s2,16(sp)
   106d2:	8526                	mv	a0,s1
   106d4:	64e2                	ld	s1,24(sp)
   106d6:	6145                	addi	sp,sp,48
   106d8:	a279                	j	0x10866
   106da:	01259583          	lh	a1,18(a1)
   106de:	4689                	li	a3,2
   106e0:	4601                	li	a2,0
   106e2:	118000ef          	jal	0x107fa
   106e6:	01041783          	lh	a5,16(s0)
   106ea:	b7f9                	j	0x106b8
   106ec:	1141                	addi	sp,sp,-16
   106ee:	e022                	sd	s0,0(sp)
   106f0:	842e                	mv	s0,a1
   106f2:	01259583          	lh	a1,18(a1)
   106f6:	e406                	sd	ra,8(sp)
   106f8:	102000ef          	jal	0x107fa
   106fc:	57fd                	li	a5,-1
   106fe:	02f50163          	beq	a0,a5,0x10720
   10702:	01045783          	lhu	a5,16(s0)
   10706:	6705                	lui	a4,0x1
   10708:	60a2                	ld	ra,8(sp)
   1070a:	8fd9                	or	a5,a5,a4
   1070c:	0107979b          	slliw	a5,a5,0x10
   10710:	4107d79b          	sraiw	a5,a5,0x10
   10714:	e848                	sd	a0,144(s0)
   10716:	00f41823          	sh	a5,16(s0)
   1071a:	6402                	ld	s0,0(sp)
   1071c:	0141                	addi	sp,sp,16
   1071e:	8082                	ret
   10720:	01045783          	lhu	a5,16(s0)
   10724:	777d                	lui	a4,0xfffff
   10726:	177d                	addi	a4,a4,-1 # 0xffffffffffffefff
   10728:	8ff9                	and	a5,a5,a4
   1072a:	0107979b          	slliw	a5,a5,0x10
   1072e:	4107d79b          	sraiw	a5,a5,0x10
   10732:	60a2                	ld	ra,8(sp)
   10734:	00f41823          	sh	a5,16(s0)
   10738:	6402                	ld	s0,0(sp)
   1073a:	0141                	addi	sp,sp,16
   1073c:	8082                	ret
   1073e:	01259583          	lh	a1,18(a1)
   10742:	a009                	j	0x10744
   10744:	1141                	addi	sp,sp,-16
   10746:	e022                	sd	s0,0(sp)
   10748:	842a                	mv	s0,a0
   1074a:	852e                	mv	a0,a1
   1074c:	1a01a823          	sw	zero,432(gp)
   10750:	e406                	sd	ra,8(sp)
   10752:	666010ef          	jal	0x11db8
   10756:	57fd                	li	a5,-1
   10758:	00f50663          	beq	a0,a5,0x10764
   1075c:	60a2                	ld	ra,8(sp)
   1075e:	6402                	ld	s0,0(sp)
   10760:	0141                	addi	sp,sp,16
   10762:	8082                	ret
   10764:	1b01a783          	lw	a5,432(gp)
   10768:	dbf5                	beqz	a5,0x1075c
   1076a:	60a2                	ld	ra,8(sp)
   1076c:	c01c                	sw	a5,0(s0)
   1076e:	6402                	ld	s0,0(sp)
   10770:	0141                	addi	sp,sp,16
   10772:	8082                	ret
   10774:	1881b783          	ld	a5,392(gp)
   10778:	08a78063          	beq	a5,a0,0x107f8
   1077c:	752c                	ld	a1,104(a0)
   1077e:	7179                	addi	sp,sp,-48
   10780:	ec26                	sd	s1,24(sp)
   10782:	f406                	sd	ra,40(sp)
   10784:	f022                	sd	s0,32(sp)
   10786:	84aa                	mv	s1,a0
   10788:	c98d                	beqz	a1,0x107ba
   1078a:	e84a                	sd	s2,16(sp)
   1078c:	e44e                	sd	s3,8(sp)
   1078e:	4901                	li	s2,0
   10790:	20000993          	li	s3,512
   10794:	012587b3          	add	a5,a1,s2
   10798:	6380                	ld	s0,0(a5)
   1079a:	c801                	beqz	s0,0x107aa
   1079c:	85a2                	mv	a1,s0
   1079e:	6000                	ld	s0,0(s0)
   107a0:	8526                	mv	a0,s1
   107a2:	3ec000ef          	jal	0x10b8e
   107a6:	f87d                	bnez	s0,0x1079c
   107a8:	74ac                	ld	a1,104(s1)
   107aa:	0921                	addi	s2,s2,8
   107ac:	ff3914e3          	bne	s2,s3,0x10794
   107b0:	8526                	mv	a0,s1
   107b2:	3dc000ef          	jal	0x10b8e
   107b6:	6942                	ld	s2,16(sp)
   107b8:	69a2                	ld	s3,8(sp)
   107ba:	68ac                	ld	a1,80(s1)
   107bc:	c581                	beqz	a1,0x107c4
   107be:	8526                	mv	a0,s1
   107c0:	3ce000ef          	jal	0x10b8e
   107c4:	70a0                	ld	s0,96(s1)
   107c6:	c419                	beqz	s0,0x107d4
   107c8:	85a2                	mv	a1,s0
   107ca:	6000                	ld	s0,0(s0)
   107cc:	8526                	mv	a0,s1
   107ce:	3c0000ef          	jal	0x10b8e
   107d2:	f87d                	bnez	s0,0x107c8
   107d4:	7cac                	ld	a1,120(s1)
   107d6:	c581                	beqz	a1,0x107de
   107d8:	8526                	mv	a0,s1
   107da:	3b4000ef          	jal	0x10b8e
   107de:	64bc                	ld	a5,72(s1)
   107e0:	c799                	beqz	a5,0x107ee
   107e2:	7402                	ld	s0,32(sp)
   107e4:	70a2                	ld	ra,40(sp)
   107e6:	8526                	mv	a0,s1
   107e8:	64e2                	ld	s1,24(sp)
   107ea:	6145                	addi	sp,sp,48
   107ec:	8782                	jr	a5
   107ee:	70a2                	ld	ra,40(sp)
   107f0:	7402                	ld	s0,32(sp)
   107f2:	64e2                	ld	s1,24(sp)
   107f4:	6145                	addi	sp,sp,48
   107f6:	8082                	ret
   107f8:	8082                	ret
   107fa:	1141                	addi	sp,sp,-16
   107fc:	872e                	mv	a4,a1
   107fe:	e022                	sd	s0,0(sp)
   10800:	85b2                	mv	a1,a2
   10802:	842a                	mv	s0,a0
   10804:	8636                	mv	a2,a3
   10806:	853a                	mv	a0,a4
   10808:	1a01a823          	sw	zero,432(gp)
   1080c:	e406                	sd	ra,8(sp)
   1080e:	65e010ef          	jal	0x11e6c
   10812:	57fd                	li	a5,-1
   10814:	00f50663          	beq	a0,a5,0x10820
   10818:	60a2                	ld	ra,8(sp)
   1081a:	6402                	ld	s0,0(sp)
   1081c:	0141                	addi	sp,sp,16
   1081e:	8082                	ret
   10820:	1b01a783          	lw	a5,432(gp)
   10824:	dbf5                	beqz	a5,0x10818
   10826:	60a2                	ld	ra,8(sp)
   10828:	c01c                	sw	a5,0(s0)
   1082a:	6402                	ld	s0,0(sp)
   1082c:	0141                	addi	sp,sp,16
   1082e:	8082                	ret
   10830:	1141                	addi	sp,sp,-16
   10832:	872e                	mv	a4,a1
   10834:	e022                	sd	s0,0(sp)
   10836:	85b2                	mv	a1,a2
   10838:	842a                	mv	s0,a0
   1083a:	8636                	mv	a2,a3
   1083c:	853a                	mv	a0,a4
   1083e:	1a01a823          	sw	zero,432(gp)
   10842:	e406                	sd	ra,8(sp)
   10844:	654010ef          	jal	0x11e98
   10848:	57fd                	li	a5,-1
   1084a:	00f50663          	beq	a0,a5,0x10856
   1084e:	60a2                	ld	ra,8(sp)
   10850:	6402                	ld	s0,0(sp)
   10852:	0141                	addi	sp,sp,16
   10854:	8082                	ret
   10856:	1b01a783          	lw	a5,432(gp)
   1085a:	dbf5                	beqz	a5,0x1084e
   1085c:	60a2                	ld	ra,8(sp)
   1085e:	c01c                	sw	a5,0(s0)
   10860:	6402                	ld	s0,0(sp)
   10862:	0141                	addi	sp,sp,16
   10864:	8082                	ret
   10866:	1141                	addi	sp,sp,-16
   10868:	872e                	mv	a4,a1
   1086a:	e022                	sd	s0,0(sp)
   1086c:	85b2                	mv	a1,a2
   1086e:	842a                	mv	s0,a0
   10870:	8636                	mv	a2,a3
   10872:	853a                	mv	a0,a4
   10874:	1a01a823          	sw	zero,432(gp)
   10878:	e406                	sd	ra,8(sp)
   1087a:	69a010ef          	jal	0x11f14
   1087e:	57fd                	li	a5,-1
   10880:	00f50663          	beq	a0,a5,0x1088c
   10884:	60a2                	ld	ra,8(sp)
   10886:	6402                	ld	s0,0(sp)
   10888:	0141                	addi	sp,sp,16
   1088a:	8082                	ret
   1088c:	1b01a783          	lw	a5,432(gp)
   10890:	dbf5                	beqz	a5,0x10884
   10892:	60a2                	ld	ra,8(sp)
   10894:	c01c                	sw	a5,0(s0)
   10896:	6402                	ld	s0,0(sp)
   10898:	0141                	addi	sp,sp,16
   1089a:	8082                	ret
   1089c:	1101                	addi	sp,sp,-32
   1089e:	e822                	sd	s0,16(sp)
   108a0:	e04a                	sd	s2,0(sp)
   108a2:	00001797          	auipc	a5,0x1
   108a6:	76278793          	addi	a5,a5,1890 # 0x12004
   108aa:	00001417          	auipc	s0,0x1
   108ae:	75a40413          	addi	s0,s0,1882 # 0x12004
   108b2:	ec06                	sd	ra,24(sp)
   108b4:	e426                	sd	s1,8(sp)
   108b6:	40878933          	sub	s2,a5,s0
   108ba:	00878b63          	beq	a5,s0,0x108d0
   108be:	40395913          	srai	s2,s2,0x3
   108c2:	4481                	li	s1,0
   108c4:	601c                	ld	a5,0(s0)
   108c6:	0485                	addi	s1,s1,1
   108c8:	0421                	addi	s0,s0,8
   108ca:	9782                	jalr	a5
   108cc:	ff24ece3          	bltu	s1,s2,0x108c4
   108d0:	00001797          	auipc	a5,0x1
   108d4:	74878793          	addi	a5,a5,1864 # 0x12018
   108d8:	00001417          	auipc	s0,0x1
   108dc:	73040413          	addi	s0,s0,1840 # 0x12008
   108e0:	40878933          	sub	s2,a5,s0
   108e4:	40395913          	srai	s2,s2,0x3
   108e8:	00878963          	beq	a5,s0,0x108fa
   108ec:	4481                	li	s1,0
   108ee:	601c                	ld	a5,0(s0)
   108f0:	0485                	addi	s1,s1,1
   108f2:	0421                	addi	s0,s0,8
   108f4:	9782                	jalr	a5
   108f6:	ff24ece3          	bltu	s1,s2,0x108ee
   108fa:	60e2                	ld	ra,24(sp)
   108fc:	6442                	ld	s0,16(sp)
   108fe:	64a2                	ld	s1,8(sp)
   10900:	6902                	ld	s2,0(sp)
   10902:	6105                	addi	sp,sp,32
   10904:	8082                	ret
   10906:	8082                	ret
   10908:	8082                	ret
   1090a:	8082                	ret
   1090c:	8082                	ret
   1090e:	8082                	ret
   10910:	8082                	ret
   10912:	4505                	li	a0,1
   10914:	8082                	ret
   10916:	4505                	li	a0,1
   10918:	8082                	ret
   1091a:	8082                	ret
   1091c:	8082                	ret
   1091e:	433d                	li	t1,15
   10920:	872a                	mv	a4,a0
   10922:	02c37163          	bgeu	t1,a2,0x10944
   10926:	00f77793          	andi	a5,a4,15
   1092a:	e3c1                	bnez	a5,0x109aa
   1092c:	e1bd                	bnez	a1,0x10992
   1092e:	ff067693          	andi	a3,a2,-16
   10932:	8a3d                	andi	a2,a2,15
   10934:	96ba                	add	a3,a3,a4
   10936:	e30c                	sd	a1,0(a4)
   10938:	e70c                	sd	a1,8(a4)
   1093a:	0741                	addi	a4,a4,16
   1093c:	fed76de3          	bltu	a4,a3,0x10936
   10940:	e211                	bnez	a2,0x10944
   10942:	8082                	ret
   10944:	40c306b3          	sub	a3,t1,a2
   10948:	068a                	slli	a3,a3,0x2
   1094a:	00000297          	auipc	t0,0x0
   1094e:	9696                	add	a3,a3,t0
   10950:	00a68067          	jr	10(a3)
   10954:	00b70723          	sb	a1,14(a4)
   10958:	00b706a3          	sb	a1,13(a4)
   1095c:	00b70623          	sb	a1,12(a4)
   10960:	00b705a3          	sb	a1,11(a4)
   10964:	00b70523          	sb	a1,10(a4)
   10968:	00b704a3          	sb	a1,9(a4)
   1096c:	00b70423          	sb	a1,8(a4)
   10970:	00b703a3          	sb	a1,7(a4)
   10974:	00b70323          	sb	a1,6(a4)
   10978:	00b702a3          	sb	a1,5(a4)
   1097c:	00b70223          	sb	a1,4(a4)
   10980:	00b701a3          	sb	a1,3(a4)
   10984:	00b70123          	sb	a1,2(a4)
   10988:	00b700a3          	sb	a1,1(a4)
   1098c:	00b70023          	sb	a1,0(a4)
   10990:	8082                	ret
   10992:	0ff5f593          	zext.b	a1,a1
   10996:	00859693          	slli	a3,a1,0x8
   1099a:	8dd5                	or	a1,a1,a3
   1099c:	01059693          	slli	a3,a1,0x10
   109a0:	8dd5                	or	a1,a1,a3
   109a2:	02059693          	slli	a3,a1,0x20
   109a6:	8dd5                	or	a1,a1,a3
   109a8:	b759                	j	0x1092e
   109aa:	00279693          	slli	a3,a5,0x2
   109ae:	00000297          	auipc	t0,0x0
   109b2:	9696                	add	a3,a3,t0
   109b4:	8286                	mv	t0,ra
   109b6:	fa2680e7          	jalr	-94(a3)
   109ba:	8096                	mv	ra,t0
   109bc:	17c1                	addi	a5,a5,-16
   109be:	8f1d                	sub	a4,a4,a5
   109c0:	963e                	add	a2,a2,a5
   109c2:	f8c371e3          	bgeu	t1,a2,0x10944
   109c6:	b79d                	j	0x1092c
   109c8:	711d                	addi	sp,sp,-96
   109ca:	ec5e                	sd	s7,24(sp)
   109cc:	19018b93          	addi	s7,gp,400
   109d0:	f05a                	sd	s6,32(sp)
   109d2:	8b2a                	mv	s6,a0
   109d4:	000bb503          	ld	a0,0(s7)
   109d8:	f852                	sd	s4,48(sp)
   109da:	1f818a13          	addi	s4,gp,504
   109de:	e0ca                	sd	s2,64(sp)
   109e0:	e862                	sd	s8,16(sp)
   109e2:	ec86                	sd	ra,88(sp)
   109e4:	8c2e                	mv	s8,a1
   109e6:	f2bff0ef          	jal	0x10910
   109ea:	000a3903          	ld	s2,0(s4)
   109ee:	06090763          	beqz	s2,0x10a5c
   109f2:	fc4e                	sd	s3,56(sp)
   109f4:	f456                	sd	s5,40(sp)
   109f6:	e8a2                	sd	s0,80(sp)
   109f8:	e4a6                	sd	s1,72(sp)
   109fa:	e466                	sd	s9,8(sp)
   109fc:	59fd                	li	s3,-1
   109fe:	4a85                	li	s5,1
   10a00:	00892483          	lw	s1,8(s2)
   10a04:	fff4841b          	addiw	s0,s1,-1
   10a08:	04044563          	bltz	s0,0x10a52
   10a0c:	048e                	slli	s1,s1,0x3
   10a0e:	94ca                	add	s1,s1,s2
   10a10:	060c1063          	bnez	s8,0x10a70
   10a14:	00892783          	lw	a5,8(s2)
   10a18:	6498                	ld	a4,8(s1)
   10a1a:	37fd                	addiw	a5,a5,-1
   10a1c:	08878563          	beq	a5,s0,0x10aa6
   10a20:	0004b423          	sd	zero,8(s1)
   10a24:	c31d                	beqz	a4,0x10a4a
   10a26:	31092783          	lw	a5,784(s2)
   10a2a:	008a96bb          	sllw	a3,s5,s0
   10a2e:	00892c83          	lw	s9,8(s2)
   10a32:	8ff5                	and	a5,a5,a3
   10a34:	2781                	sext.w	a5,a5
   10a36:	e7b1                	bnez	a5,0x10a82
   10a38:	9702                	jalr	a4
   10a3a:	00892703          	lw	a4,8(s2)
   10a3e:	000a3783          	ld	a5,0(s4)
   10a42:	05971f63          	bne	a4,s9,0x10aa0
   10a46:	05279d63          	bne	a5,s2,0x10aa0
   10a4a:	347d                	addiw	s0,s0,-1
   10a4c:	14e1                	addi	s1,s1,-8
   10a4e:	fd3411e3          	bne	s0,s3,0x10a10
   10a52:	6446                	ld	s0,80(sp)
   10a54:	64a6                	ld	s1,72(sp)
   10a56:	79e2                	ld	s3,56(sp)
   10a58:	7aa2                	ld	s5,40(sp)
   10a5a:	6ca2                	ld	s9,8(sp)
   10a5c:	000bb503          	ld	a0,0(s7)
   10a60:	60e6                	ld	ra,88(sp)
   10a62:	6906                	ld	s2,64(sp)
   10a64:	7a42                	ld	s4,48(sp)
   10a66:	7b02                	ld	s6,32(sp)
   10a68:	6be2                	ld	s7,24(sp)
   10a6a:	6c42                	ld	s8,16(sp)
   10a6c:	6125                	addi	sp,sp,96
   10a6e:	b57d                	j	0x1091c
   10a70:	2084b783          	ld	a5,520(s1)
   10a74:	fb8780e3          	beq	a5,s8,0x10a14
   10a78:	347d                	addiw	s0,s0,-1
   10a7a:	14e1                	addi	s1,s1,-8
   10a7c:	ff341ae3          	bne	s0,s3,0x10a70
   10a80:	bfc9                	j	0x10a52
   10a82:	31492783          	lw	a5,788(s2)
   10a86:	1084b583          	ld	a1,264(s1)
   10a8a:	8ff5                	and	a5,a5,a3
   10a8c:	2781                	sext.w	a5,a5
   10a8e:	ef99                	bnez	a5,0x10aac
   10a90:	855a                	mv	a0,s6
   10a92:	9702                	jalr	a4
   10a94:	00892703          	lw	a4,8(s2)
   10a98:	000a3783          	ld	a5,0(s4)
   10a9c:	fb9705e3          	beq	a4,s9,0x10a46
   10aa0:	dbcd                	beqz	a5,0x10a52
   10aa2:	893e                	mv	s2,a5
   10aa4:	bfb1                	j	0x10a00
   10aa6:	00892423          	sw	s0,8(s2)
   10aaa:	bfad                	j	0x10a24
   10aac:	852e                	mv	a0,a1
   10aae:	9702                	jalr	a4
   10ab0:	b769                	j	0x10a3a
   10ab2:	85aa                	mv	a1,a0
   10ab4:	4681                	li	a3,0
   10ab6:	4601                	li	a2,0
   10ab8:	4501                	li	a0,0
   10aba:	0600106f          	j	0x11b1a
   10abe:	7179                	addi	sp,sp,-48
   10ac0:	f022                	sd	s0,32(sp)
   10ac2:	ec26                	sd	s1,24(sp)
   10ac4:	e84a                	sd	s2,16(sp)
   10ac6:	e44e                	sd	s3,8(sp)
   10ac8:	e052                	sd	s4,0(sp)
   10aca:	89ae                	mv	s3,a1
   10acc:	f406                	sd	ra,40(sp)
   10ace:	892a                	mv	s2,a0
   10ad0:	00001a17          	auipc	s4,0x1
   10ad4:	6c0a0a13          	addi	s4,s4,1728 # 0x12190
   10ad8:	10f000ef          	jal	0x113e6
   10adc:	010a3703          	ld	a4,16(s4)
   10ae0:	6785                	lui	a5,0x1
   10ae2:	fdf78793          	addi	a5,a5,-33 # 0xfdf
   10ae6:	6704                	ld	s1,8(a4)
   10ae8:	6705                	lui	a4,0x1
   10aea:	98f1                	andi	s1,s1,-4
   10aec:	00f48433          	add	s0,s1,a5
   10af0:	41340433          	sub	s0,s0,s3
   10af4:	8031                	srli	s0,s0,0xc
   10af6:	147d                	addi	s0,s0,-1
   10af8:	0432                	slli	s0,s0,0xc
   10afa:	00e44b63          	blt	s0,a4,0x10b10
   10afe:	4581                	li	a1,0
   10b00:	854a                	mv	a0,s2
   10b02:	7b1000ef          	jal	0x11ab2
   10b06:	010a3783          	ld	a5,16(s4)
   10b0a:	97a6                	add	a5,a5,s1
   10b0c:	00f50e63          	beq	a0,a5,0x10b28
   10b10:	854a                	mv	a0,s2
   10b12:	0dd000ef          	jal	0x113ee
   10b16:	70a2                	ld	ra,40(sp)
   10b18:	7402                	ld	s0,32(sp)
   10b1a:	64e2                	ld	s1,24(sp)
   10b1c:	6942                	ld	s2,16(sp)
   10b1e:	69a2                	ld	s3,8(sp)
   10b20:	6a02                	ld	s4,0(sp)
   10b22:	4501                	li	a0,0
   10b24:	6145                	addi	sp,sp,48
   10b26:	8082                	ret
   10b28:	408005b3          	neg	a1,s0
   10b2c:	854a                	mv	a0,s2
   10b2e:	785000ef          	jal	0x11ab2
   10b32:	57fd                	li	a5,-1
   10b34:	02f50963          	beq	a0,a5,0x10b66
   10b38:	48018713          	addi	a4,gp,1152
   10b3c:	431c                	lw	a5,0(a4)
   10b3e:	010a3683          	ld	a3,16(s4)
   10b42:	8c81                	sub	s1,s1,s0
   10b44:	0014e493          	ori	s1,s1,1
   10b48:	9f81                	subw	a5,a5,s0
   10b4a:	854a                	mv	a0,s2
   10b4c:	e684                	sd	s1,8(a3)
   10b4e:	c31c                	sw	a5,0(a4)
   10b50:	09f000ef          	jal	0x113ee
   10b54:	70a2                	ld	ra,40(sp)
   10b56:	7402                	ld	s0,32(sp)
   10b58:	64e2                	ld	s1,24(sp)
   10b5a:	6942                	ld	s2,16(sp)
   10b5c:	69a2                	ld	s3,8(sp)
   10b5e:	6a02                	ld	s4,0(sp)
   10b60:	4505                	li	a0,1
   10b62:	6145                	addi	sp,sp,48
   10b64:	8082                	ret
   10b66:	4581                	li	a1,0
   10b68:	854a                	mv	a0,s2
   10b6a:	749000ef          	jal	0x11ab2
   10b6e:	010a3703          	ld	a4,16(s4)
   10b72:	46fd                	li	a3,31
   10b74:	40e507b3          	sub	a5,a0,a4
   10b78:	f8f6dce3          	bge	a3,a5,0x10b10
   10b7c:	1981b683          	ld	a3,408(gp)
   10b80:	8d15                	sub	a0,a0,a3
   10b82:	0017e793          	ori	a5,a5,1
   10b86:	48a1a023          	sw	a0,1152(gp)
   10b8a:	e71c                	sd	a5,8(a4)
   10b8c:	b751                	j	0x10b10
   10b8e:	12058363          	beqz	a1,0x10cb4
   10b92:	1101                	addi	sp,sp,-32
   10b94:	e822                	sd	s0,16(sp)
   10b96:	e426                	sd	s1,8(sp)
   10b98:	842e                	mv	s0,a1
   10b9a:	84aa                	mv	s1,a0
   10b9c:	ec06                	sd	ra,24(sp)
   10b9e:	049000ef          	jal	0x113e6
   10ba2:	ff843583          	ld	a1,-8(s0)
   10ba6:	ff040713          	addi	a4,s0,-16
   10baa:	00001517          	auipc	a0,0x1
   10bae:	5e650513          	addi	a0,a0,1510 # 0x12190
   10bb2:	ffe5f793          	andi	a5,a1,-2
   10bb6:	00f70633          	add	a2,a4,a5
   10bba:	6614                	ld	a3,8(a2)
   10bbc:	01053803          	ld	a6,16(a0)
   10bc0:	9af1                	andi	a3,a3,-4
   10bc2:	12c80b63          	beq	a6,a2,0x10cf8
   10bc6:	e614                	sd	a3,8(a2)
   10bc8:	8985                	andi	a1,a1,1
   10bca:	00d60833          	add	a6,a2,a3
   10bce:	e1c1                	bnez	a1,0x10c4e
   10bd0:	ff043303          	ld	t1,-16(s0)
   10bd4:	00883583          	ld	a1,8(a6)
   10bd8:	00001897          	auipc	a7,0x1
   10bdc:	5c888893          	addi	a7,a7,1480 # 0x121a0
   10be0:	40670733          	sub	a4,a4,t1
   10be4:	01073803          	ld	a6,16(a4) # 0x1010
   10be8:	979a                	add	a5,a5,t1
   10bea:	8985                	andi	a1,a1,1
   10bec:	0f180a63          	beq	a6,a7,0x10ce0
   10bf0:	01873303          	ld	t1,24(a4)
   10bf4:	00683c23          	sd	t1,24(a6)
   10bf8:	01033823          	sd	a6,16(t1) # 0x101ac
   10bfc:	12058763          	beqz	a1,0x10d2a
   10c00:	0017e693          	ori	a3,a5,1
   10c04:	e714                	sd	a3,8(a4)
   10c06:	e21c                	sd	a5,0(a2)
   10c08:	1ff00693          	li	a3,511
   10c0c:	04f6ee63          	bltu	a3,a5,0x10c68
   10c10:	838d                	srli	a5,a5,0x3
   10c12:	0017869b          	addiw	a3,a5,1
   10c16:	0016969b          	slliw	a3,a3,0x1
   10c1a:	068e                	slli	a3,a3,0x3
   10c1c:	00853803          	ld	a6,8(a0)
   10c20:	96aa                	add	a3,a3,a0
   10c22:	628c                	ld	a1,0(a3)
   10c24:	4027d61b          	sraiw	a2,a5,0x2
   10c28:	4785                	li	a5,1
   10c2a:	00c797b3          	sll	a5,a5,a2
   10c2e:	0107e7b3          	or	a5,a5,a6
   10c32:	ff068613          	addi	a2,a3,-16
   10c36:	ef10                	sd	a2,24(a4)
   10c38:	eb0c                	sd	a1,16(a4)
   10c3a:	e51c                	sd	a5,8(a0)
   10c3c:	e298                	sd	a4,0(a3)
   10c3e:	ed98                	sd	a4,24(a1)
   10c40:	6442                	ld	s0,16(sp)
   10c42:	60e2                	ld	ra,24(sp)
   10c44:	8526                	mv	a0,s1
   10c46:	64a2                	ld	s1,8(sp)
   10c48:	6105                	addi	sp,sp,32
   10c4a:	7a40006f          	j	0x113ee
   10c4e:	00883583          	ld	a1,8(a6)
   10c52:	8985                	andi	a1,a1,1
   10c54:	c1ad                	beqz	a1,0x10cb6
   10c56:	0017e693          	ori	a3,a5,1
   10c5a:	fed43c23          	sd	a3,-8(s0)
   10c5e:	e21c                	sd	a5,0(a2)
   10c60:	1ff00693          	li	a3,511
   10c64:	faf6f6e3          	bgeu	a3,a5,0x10c10
   10c68:	0097d693          	srli	a3,a5,0x9
   10c6c:	4611                	li	a2,4
   10c6e:	0cd66063          	bltu	a2,a3,0x10d2e
   10c72:	0067d693          	srli	a3,a5,0x6
   10c76:	0396859b          	addiw	a1,a3,57
   10c7a:	0015959b          	slliw	a1,a1,0x1
   10c7e:	0386861b          	addiw	a2,a3,56
   10c82:	058e                	slli	a1,a1,0x3
   10c84:	95aa                	add	a1,a1,a0
   10c86:	6194                	ld	a3,0(a1)
   10c88:	15c1                	addi	a1,a1,-16
   10c8a:	00d59663          	bne	a1,a3,0x10c96
   10c8e:	a0ed                	j	0x10d78
   10c90:	6a94                	ld	a3,16(a3)
   10c92:	00d58663          	beq	a1,a3,0x10c9e
   10c96:	6690                	ld	a2,8(a3)
   10c98:	9a71                	andi	a2,a2,-4
   10c9a:	fec7ebe3          	bltu	a5,a2,0x10c90
   10c9e:	6e8c                	ld	a1,24(a3)
   10ca0:	ef0c                	sd	a1,24(a4)
   10ca2:	eb14                	sd	a3,16(a4)
   10ca4:	6442                	ld	s0,16(sp)
   10ca6:	60e2                	ld	ra,24(sp)
   10ca8:	e998                	sd	a4,16(a1)
   10caa:	8526                	mv	a0,s1
   10cac:	64a2                	ld	s1,8(sp)
   10cae:	ee98                	sd	a4,24(a3)
   10cb0:	6105                	addi	sp,sp,32
   10cb2:	af35                	j	0x113ee
   10cb4:	8082                	ret
   10cb6:	97b6                	add	a5,a5,a3
   10cb8:	00001897          	auipc	a7,0x1
   10cbc:	4e888893          	addi	a7,a7,1256 # 0x121a0
   10cc0:	6a14                	ld	a3,16(a2)
   10cc2:	09168f63          	beq	a3,a7,0x10d60
   10cc6:	01863803          	ld	a6,24(a2)
   10cca:	0017e593          	ori	a1,a5,1
   10cce:	00f70633          	add	a2,a4,a5
   10cd2:	0106bc23          	sd	a6,24(a3)
   10cd6:	00d83823          	sd	a3,16(a6)
   10cda:	e70c                	sd	a1,8(a4)
   10cdc:	e21c                	sd	a5,0(a2)
   10cde:	b72d                	j	0x10c08
   10ce0:	e9e5                	bnez	a1,0x10dd0
   10ce2:	6a0c                	ld	a1,16(a2)
   10ce4:	6e10                	ld	a2,24(a2)
   10ce6:	96be                	add	a3,a3,a5
   10ce8:	0016e793          	ori	a5,a3,1
   10cec:	ed90                	sd	a2,24(a1)
   10cee:	ea0c                	sd	a1,16(a2)
   10cf0:	e71c                	sd	a5,8(a4)
   10cf2:	9736                	add	a4,a4,a3
   10cf4:	e314                	sd	a3,0(a4)
   10cf6:	b7a9                	j	0x10c40
   10cf8:	8985                	andi	a1,a1,1
   10cfa:	96be                	add	a3,a3,a5
   10cfc:	e989                	bnez	a1,0x10d0e
   10cfe:	ff043583          	ld	a1,-16(s0)
   10d02:	8f0d                	sub	a4,a4,a1
   10d04:	6f1c                	ld	a5,24(a4)
   10d06:	6b10                	ld	a2,16(a4)
   10d08:	96ae                	add	a3,a3,a1
   10d0a:	ee1c                	sd	a5,24(a2)
   10d0c:	eb90                	sd	a2,16(a5)
   10d0e:	0016e793          	ori	a5,a3,1
   10d12:	e71c                	sd	a5,8(a4)
   10d14:	e918                	sd	a4,16(a0)
   10d16:	1a01b783          	ld	a5,416(gp)
   10d1a:	f2f6e3e3          	bltu	a3,a5,0x10c40
   10d1e:	2101b583          	ld	a1,528(gp)
   10d22:	8526                	mv	a0,s1
   10d24:	d9bff0ef          	jal	0x10abe
   10d28:	bf21                	j	0x10c40
   10d2a:	97b6                	add	a5,a5,a3
   10d2c:	bf51                	j	0x10cc0
   10d2e:	4651                	li	a2,20
   10d30:	02d67063          	bgeu	a2,a3,0x10d50
   10d34:	05400613          	li	a2,84
   10d38:	04d66b63          	bltu	a2,a3,0x10d8e
   10d3c:	00c7d693          	srli	a3,a5,0xc
   10d40:	06f6859b          	addiw	a1,a3,111
   10d44:	0015959b          	slliw	a1,a1,0x1
   10d48:	06e6861b          	addiw	a2,a3,110
   10d4c:	058e                	slli	a1,a1,0x3
   10d4e:	bf1d                	j	0x10c84
   10d50:	05c6859b          	addiw	a1,a3,92
   10d54:	0015959b          	slliw	a1,a1,0x1
   10d58:	05b6861b          	addiw	a2,a3,91
   10d5c:	058e                	slli	a1,a1,0x3
   10d5e:	b71d                	j	0x10c84
   10d60:	f518                	sd	a4,40(a0)
   10d62:	f118                	sd	a4,32(a0)
   10d64:	0017e693          	ori	a3,a5,1
   10d68:	01173c23          	sd	a7,24(a4)
   10d6c:	01173823          	sd	a7,16(a4)
   10d70:	e714                	sd	a3,8(a4)
   10d72:	973e                	add	a4,a4,a5
   10d74:	e31c                	sd	a5,0(a4)
   10d76:	b5e9                	j	0x10c40
   10d78:	00853803          	ld	a6,8(a0)
   10d7c:	4026561b          	sraiw	a2,a2,0x2
   10d80:	4785                	li	a5,1
   10d82:	00c797b3          	sll	a5,a5,a2
   10d86:	0107e7b3          	or	a5,a5,a6
   10d8a:	e51c                	sd	a5,8(a0)
   10d8c:	bf11                	j	0x10ca0
   10d8e:	15400613          	li	a2,340
   10d92:	00d66c63          	bltu	a2,a3,0x10daa
   10d96:	00f7d693          	srli	a3,a5,0xf
   10d9a:	0786859b          	addiw	a1,a3,120
   10d9e:	0015959b          	slliw	a1,a1,0x1
   10da2:	0776861b          	addiw	a2,a3,119
   10da6:	058e                	slli	a1,a1,0x3
   10da8:	bdf1                	j	0x10c84
   10daa:	55400613          	li	a2,1364
   10dae:	00d66c63          	bltu	a2,a3,0x10dc6
   10db2:	0127d693          	srli	a3,a5,0x12
   10db6:	07d6859b          	addiw	a1,a3,125
   10dba:	0015959b          	slliw	a1,a1,0x1
   10dbe:	07c6861b          	addiw	a2,a3,124
   10dc2:	058e                	slli	a1,a1,0x3
   10dc4:	b5c1                	j	0x10c84
   10dc6:	7f000593          	li	a1,2032
   10dca:	07e00613          	li	a2,126
   10dce:	bd5d                	j	0x10c84
   10dd0:	0017e693          	ori	a3,a5,1
   10dd4:	e714                	sd	a3,8(a4)
   10dd6:	e21c                	sd	a5,0(a2)
   10dd8:	b5a5                	j	0x10c40
   10dda:	711d                	addi	sp,sp,-96
   10ddc:	e4a6                	sd	s1,72(sp)
   10dde:	e0ca                	sd	s2,64(sp)
   10de0:	ec86                	sd	ra,88(sp)
   10de2:	e8a2                	sd	s0,80(sp)
   10de4:	fc4e                	sd	s3,56(sp)
   10de6:	01758493          	addi	s1,a1,23
   10dea:	02e00793          	li	a5,46
   10dee:	892a                	mv	s2,a0
   10df0:	0497ee63          	bltu	a5,s1,0x10e4c
   10df4:	02000793          	li	a5,32
   10df8:	18b7ec63          	bltu	a5,a1,0x10f90
   10dfc:	5ea000ef          	jal	0x113e6
   10e00:	05000793          	li	a5,80
   10e04:	4591                	li	a1,4
   10e06:	02000493          	li	s1,32
   10e0a:	00001997          	auipc	s3,0x1
   10e0e:	38698993          	addi	s3,s3,902 # 0x12190
   10e12:	97ce                	add	a5,a5,s3
   10e14:	6780                	ld	s0,8(a5)
   10e16:	ff078713          	addi	a4,a5,-16
   10e1a:	28e40163          	beq	s0,a4,0x1109c
   10e1e:	641c                	ld	a5,8(s0)
   10e20:	6c14                	ld	a3,24(s0)
   10e22:	6810                	ld	a2,16(s0)
   10e24:	9bf1                	andi	a5,a5,-4
   10e26:	97a2                	add	a5,a5,s0
   10e28:	6798                	ld	a4,8(a5)
   10e2a:	ee14                	sd	a3,24(a2)
   10e2c:	ea90                	sd	a2,16(a3)
   10e2e:	00176713          	ori	a4,a4,1
   10e32:	854a                	mv	a0,s2
   10e34:	e798                	sd	a4,8(a5)
   10e36:	5b8000ef          	jal	0x113ee
   10e3a:	01040513          	addi	a0,s0,16
   10e3e:	60e6                	ld	ra,88(sp)
   10e40:	6446                	ld	s0,80(sp)
   10e42:	64a6                	ld	s1,72(sp)
   10e44:	6906                	ld	s2,64(sp)
   10e46:	79e2                	ld	s3,56(sp)
   10e48:	6125                	addi	sp,sp,96
   10e4a:	8082                	ret
   10e4c:	800007b7          	lui	a5,0x80000
   10e50:	98c1                	andi	s1,s1,-16
   10e52:	fff7c793          	not	a5,a5
   10e56:	1297ed63          	bltu	a5,s1,0x10f90
   10e5a:	12b4eb63          	bltu	s1,a1,0x10f90
   10e5e:	588000ef          	jal	0x113e6
   10e62:	1f700793          	li	a5,503
   10e66:	3297f663          	bgeu	a5,s1,0x11192
   10e6a:	0094d793          	srli	a5,s1,0x9
   10e6e:	12078663          	beqz	a5,0x10f9a
   10e72:	4711                	li	a4,4
   10e74:	26f76b63          	bltu	a4,a5,0x110ea
   10e78:	0064d793          	srli	a5,s1,0x6
   10e7c:	0397859b          	addiw	a1,a5,57 # 0xffffffff80000039
   10e80:	0015961b          	slliw	a2,a1,0x1
   10e84:	0387881b          	addiw	a6,a5,56
   10e88:	060e                	slli	a2,a2,0x3
   10e8a:	00001997          	auipc	s3,0x1
   10e8e:	30698993          	addi	s3,s3,774 # 0x12190
   10e92:	964e                	add	a2,a2,s3
   10e94:	6600                	ld	s0,8(a2)
   10e96:	1641                	addi	a2,a2,-16
   10e98:	02860163          	beq	a2,s0,0x10eba
   10e9c:	457d                	li	a0,31
   10e9e:	a039                	j	0x10eac
   10ea0:	6c14                	ld	a3,24(s0)
   10ea2:	1e075b63          	bgez	a4,0x11098
   10ea6:	00d60a63          	beq	a2,a3,0x10eba
   10eaa:	8436                	mv	s0,a3
   10eac:	641c                	ld	a5,8(s0)
   10eae:	9bf1                	andi	a5,a5,-4
   10eb0:	40978733          	sub	a4,a5,s1
   10eb4:	fee556e3          	bge	a0,a4,0x10ea0
   10eb8:	85c2                	mv	a1,a6
   10eba:	0209b403          	ld	s0,32(s3)
   10ebe:	00001897          	auipc	a7,0x1
   10ec2:	2e288893          	addi	a7,a7,738 # 0x121a0
   10ec6:	1d140663          	beq	s0,a7,0x11092
   10eca:	641c                	ld	a5,8(s0)
   10ecc:	46fd                	li	a3,31
   10ece:	9bf1                	andi	a5,a5,-4
   10ed0:	40978733          	sub	a4,a5,s1
   10ed4:	28e6c863          	blt	a3,a4,0x11164
   10ed8:	0319b423          	sd	a7,40(s3)
   10edc:	0319b023          	sd	a7,32(s3)
   10ee0:	26075763          	bgez	a4,0x1114e
   10ee4:	1ff00713          	li	a4,511
   10ee8:	0089b503          	ld	a0,8(s3)
   10eec:	1af76d63          	bltu	a4,a5,0x110a6
   10ef0:	838d                	srli	a5,a5,0x3
   10ef2:	0017871b          	addiw	a4,a5,1
   10ef6:	0017171b          	slliw	a4,a4,0x1
   10efa:	070e                	slli	a4,a4,0x3
   10efc:	974e                	add	a4,a4,s3
   10efe:	6310                	ld	a2,0(a4)
   10f00:	4027d79b          	sraiw	a5,a5,0x2
   10f04:	4685                	li	a3,1
   10f06:	00f697b3          	sll	a5,a3,a5
   10f0a:	8d5d                	or	a0,a0,a5
   10f0c:	ff070793          	addi	a5,a4,-16
   10f10:	ec1c                	sd	a5,24(s0)
   10f12:	e810                	sd	a2,16(s0)
   10f14:	00a9b423          	sd	a0,8(s3)
   10f18:	e300                	sd	s0,0(a4)
   10f1a:	ee00                	sd	s0,24(a2)
   10f1c:	4025d79b          	sraiw	a5,a1,0x2
   10f20:	4605                	li	a2,1
   10f22:	00f61633          	sll	a2,a2,a5
   10f26:	08c56163          	bltu	a0,a2,0x10fa8
   10f2a:	00a677b3          	and	a5,a2,a0
   10f2e:	ef81                	bnez	a5,0x10f46
   10f30:	0606                	slli	a2,a2,0x1
   10f32:	99f1                	andi	a1,a1,-4
   10f34:	00a677b3          	and	a5,a2,a0
   10f38:	2591                	addiw	a1,a1,4
   10f3a:	e791                	bnez	a5,0x10f46
   10f3c:	0606                	slli	a2,a2,0x1
   10f3e:	00a677b3          	and	a5,a2,a0
   10f42:	2591                	addiw	a1,a1,4
   10f44:	dfe5                	beqz	a5,0x10f3c
   10f46:	487d                	li	a6,31
   10f48:	0015831b          	addiw	t1,a1,1
   10f4c:	0013131b          	slliw	t1,t1,0x1
   10f50:	030e                	slli	t1,t1,0x3
   10f52:	1341                	addi	t1,t1,-16
   10f54:	934e                	add	t1,t1,s3
   10f56:	851a                	mv	a0,t1
   10f58:	6d1c                	ld	a5,24(a0)
   10f5a:	8e2e                	mv	t3,a1
   10f5c:	1af50863          	beq	a0,a5,0x1110c
   10f60:	6798                	ld	a4,8(a5)
   10f62:	843e                	mv	s0,a5
   10f64:	6f9c                	ld	a5,24(a5)
   10f66:	9b71                	andi	a4,a4,-4
   10f68:	409706b3          	sub	a3,a4,s1
   10f6c:	1ad84763          	blt	a6,a3,0x1111a
   10f70:	fe06c6e3          	bltz	a3,0x10f5c
   10f74:	9722                	add	a4,a4,s0
   10f76:	6714                	ld	a3,8(a4)
   10f78:	6810                	ld	a2,16(s0)
   10f7a:	854a                	mv	a0,s2
   10f7c:	0016e693          	ori	a3,a3,1
   10f80:	e714                	sd	a3,8(a4)
   10f82:	ee1c                	sd	a5,24(a2)
   10f84:	eb90                	sd	a2,16(a5)
   10f86:	468000ef          	jal	0x113ee
   10f8a:	01040513          	addi	a0,s0,16
   10f8e:	bd45                	j	0x10e3e
   10f90:	47b1                	li	a5,12
   10f92:	00f92023          	sw	a5,0(s2)
   10f96:	4501                	li	a0,0
   10f98:	b55d                	j	0x10e3e
   10f9a:	40000613          	li	a2,1024
   10f9e:	04000593          	li	a1,64
   10fa2:	03f00813          	li	a6,63
   10fa6:	b5d5                	j	0x10e8a
   10fa8:	0109b403          	ld	s0,16(s3)
   10fac:	f456                	sd	s5,40(sp)
   10fae:	641c                	ld	a5,8(s0)
   10fb0:	ffc7fa93          	andi	s5,a5,-4
   10fb4:	009ae763          	bltu	s5,s1,0x10fc2
   10fb8:	409a8733          	sub	a4,s5,s1
   10fbc:	47fd                	li	a5,31
   10fbe:	0ae7c463          	blt	a5,a4,0x11066
   10fc2:	e466                	sd	s9,8(sp)
   10fc4:	19818c93          	addi	s9,gp,408
   10fc8:	000cb703          	ld	a4,0(s9)
   10fcc:	f852                	sd	s4,48(sp)
   10fce:	ec5e                	sd	s7,24(sp)
   10fd0:	2101ba03          	ld	s4,528(gp)
   10fd4:	f05a                	sd	s6,32(sp)
   10fd6:	57fd                	li	a5,-1
   10fd8:	01540bb3          	add	s7,s0,s5
   10fdc:	9a26                	add	s4,s4,s1
   10fde:	2ef70863          	beq	a4,a5,0x112ce
   10fe2:	6785                	lui	a5,0x1
   10fe4:	07fd                	addi	a5,a5,31 # 0x101f
   10fe6:	9a3e                	add	s4,s4,a5
   10fe8:	77fd                	lui	a5,0xfffff
   10fea:	00fa7a33          	and	s4,s4,a5
   10fee:	85d2                	mv	a1,s4
   10ff0:	854a                	mv	a0,s2
   10ff2:	2c1000ef          	jal	0x11ab2
   10ff6:	57fd                	li	a5,-1
   10ff8:	8b2a                	mv	s6,a0
   10ffa:	36f50063          	beq	a0,a5,0x1135a
   10ffe:	e862                	sd	s8,16(sp)
   11000:	1b756c63          	bltu	a0,s7,0x111b8
   11004:	48018c13          	addi	s8,gp,1152
   11008:	000c2783          	lw	a5,0(s8)
   1100c:	0147873b          	addw	a4,a5,s4
   11010:	00ec2023          	sw	a4,0(s8)
   11014:	86ba                	mv	a3,a4
   11016:	20ab9763          	bne	s7,a0,0x11224
   1101a:	03451793          	slli	a5,a0,0x34
   1101e:	20079363          	bnez	a5,0x11224
   11022:	0109bb03          	ld	s6,16(s3)
   11026:	014a87b3          	add	a5,s5,s4
   1102a:	0017e793          	ori	a5,a5,1
   1102e:	00fb3423          	sd	a5,8(s6)
   11032:	20818693          	addi	a3,gp,520
   11036:	6290                	ld	a2,0(a3)
   11038:	00e67363          	bgeu	a2,a4,0x1103e
   1103c:	e298                	sd	a4,0(a3)
   1103e:	20018693          	addi	a3,gp,512
   11042:	6290                	ld	a2,0(a3)
   11044:	00e67363          	bgeu	a2,a4,0x1104a
   11048:	e298                	sd	a4,0(a3)
   1104a:	6c42                	ld	s8,16(sp)
   1104c:	845a                	mv	s0,s6
   1104e:	9bf1                	andi	a5,a5,-4
   11050:	40978733          	sub	a4,a5,s1
   11054:	2a97ed63          	bltu	a5,s1,0x1130e
   11058:	47fd                	li	a5,31
   1105a:	2ae7da63          	bge	a5,a4,0x1130e
   1105e:	7a42                	ld	s4,48(sp)
   11060:	7b02                	ld	s6,32(sp)
   11062:	6be2                	ld	s7,24(sp)
   11064:	6ca2                	ld	s9,8(sp)
   11066:	0014e793          	ori	a5,s1,1
   1106a:	e41c                	sd	a5,8(s0)
   1106c:	94a2                	add	s1,s1,s0
   1106e:	0099b823          	sd	s1,16(s3)
   11072:	00176713          	ori	a4,a4,1
   11076:	854a                	mv	a0,s2
   11078:	e498                	sd	a4,8(s1)
   1107a:	374000ef          	jal	0x113ee
   1107e:	60e6                	ld	ra,88(sp)
   11080:	01040513          	addi	a0,s0,16
   11084:	6446                	ld	s0,80(sp)
   11086:	7aa2                	ld	s5,40(sp)
   11088:	64a6                	ld	s1,72(sp)
   1108a:	6906                	ld	s2,64(sp)
   1108c:	79e2                	ld	s3,56(sp)
   1108e:	6125                	addi	sp,sp,96
   11090:	8082                	ret
   11092:	0089b503          	ld	a0,8(s3)
   11096:	b559                	j	0x10f1c
   11098:	6810                	ld	a2,16(s0)
   1109a:	b371                	j	0x10e26
   1109c:	6f80                	ld	s0,24(a5)
   1109e:	2589                	addiw	a1,a1,2
   110a0:	e0878de3          	beq	a5,s0,0x10eba
   110a4:	bbad                	j	0x10e1e
   110a6:	0097d713          	srli	a4,a5,0x9
   110aa:	4691                	li	a3,4
   110ac:	0ee6fc63          	bgeu	a3,a4,0x111a4
   110b0:	46d1                	li	a3,20
   110b2:	26e6e863          	bltu	a3,a4,0x11322
   110b6:	05c7061b          	addiw	a2,a4,92
   110ba:	0016161b          	slliw	a2,a2,0x1
   110be:	05b7069b          	addiw	a3,a4,91
   110c2:	060e                	slli	a2,a2,0x3
   110c4:	964e                	add	a2,a2,s3
   110c6:	6218                	ld	a4,0(a2)
   110c8:	1641                	addi	a2,a2,-16
   110ca:	00e61663          	bne	a2,a4,0x110d6
   110ce:	a419                	j	0x112d4
   110d0:	6b18                	ld	a4,16(a4)
   110d2:	00e60663          	beq	a2,a4,0x110de
   110d6:	6714                	ld	a3,8(a4)
   110d8:	9af1                	andi	a3,a3,-4
   110da:	fed7ebe3          	bltu	a5,a3,0x110d0
   110de:	6f10                	ld	a2,24(a4)
   110e0:	ec10                	sd	a2,24(s0)
   110e2:	e818                	sd	a4,16(s0)
   110e4:	ea00                	sd	s0,16(a2)
   110e6:	ef00                	sd	s0,24(a4)
   110e8:	bd15                	j	0x10f1c
   110ea:	4751                	li	a4,20
   110ec:	0cf77d63          	bgeu	a4,a5,0x111c6
   110f0:	05400713          	li	a4,84
   110f4:	24f76563          	bltu	a4,a5,0x1133e
   110f8:	00c4d793          	srli	a5,s1,0xc
   110fc:	06f7859b          	addiw	a1,a5,111 # 0xfffffffffffff06f
   11100:	0015961b          	slliw	a2,a1,0x1
   11104:	06e7881b          	addiw	a6,a5,110
   11108:	060e                	slli	a2,a2,0x3
   1110a:	b341                	j	0x10e8a
   1110c:	2e05                	addiw	t3,t3,1
   1110e:	003e7793          	andi	a5,t3,3
   11112:	0541                	addi	a0,a0,16
   11114:	c7f1                	beqz	a5,0x111e0
   11116:	6d1c                	ld	a5,24(a0)
   11118:	b591                	j	0x10f5c
   1111a:	6810                	ld	a2,16(s0)
   1111c:	0014e593          	ori	a1,s1,1
   11120:	e40c                	sd	a1,8(s0)
   11122:	ee1c                	sd	a5,24(a2)
   11124:	eb90                	sd	a2,16(a5)
   11126:	94a2                	add	s1,s1,s0
   11128:	0299b423          	sd	s1,40(s3)
   1112c:	0299b023          	sd	s1,32(s3)
   11130:	0016e793          	ori	a5,a3,1
   11134:	0114bc23          	sd	a7,24(s1)
   11138:	0114b823          	sd	a7,16(s1)
   1113c:	e49c                	sd	a5,8(s1)
   1113e:	9722                	add	a4,a4,s0
   11140:	854a                	mv	a0,s2
   11142:	e314                	sd	a3,0(a4)
   11144:	2aa000ef          	jal	0x113ee
   11148:	01040513          	addi	a0,s0,16
   1114c:	b9cd                	j	0x10e3e
   1114e:	97a2                	add	a5,a5,s0
   11150:	6798                	ld	a4,8(a5)
   11152:	854a                	mv	a0,s2
   11154:	00176713          	ori	a4,a4,1
   11158:	e798                	sd	a4,8(a5)
   1115a:	294000ef          	jal	0x113ee
   1115e:	01040513          	addi	a0,s0,16
   11162:	b9f1                	j	0x10e3e
   11164:	0014e693          	ori	a3,s1,1
   11168:	e414                	sd	a3,8(s0)
   1116a:	94a2                	add	s1,s1,s0
   1116c:	0299b423          	sd	s1,40(s3)
   11170:	0299b023          	sd	s1,32(s3)
   11174:	00176693          	ori	a3,a4,1
   11178:	0114bc23          	sd	a7,24(s1)
   1117c:	0114b823          	sd	a7,16(s1)
   11180:	e494                	sd	a3,8(s1)
   11182:	97a2                	add	a5,a5,s0
   11184:	854a                	mv	a0,s2
   11186:	e398                	sd	a4,0(a5)
   11188:	266000ef          	jal	0x113ee
   1118c:	01040513          	addi	a0,s0,16
   11190:	b17d                	j	0x10e3e
   11192:	0034d593          	srli	a1,s1,0x3
   11196:	0015879b          	addiw	a5,a1,1
   1119a:	0017979b          	slliw	a5,a5,0x1
   1119e:	2581                	sext.w	a1,a1
   111a0:	078e                	slli	a5,a5,0x3
   111a2:	b1a5                	j	0x10e0a
   111a4:	0067d713          	srli	a4,a5,0x6
   111a8:	0397061b          	addiw	a2,a4,57
   111ac:	0016161b          	slliw	a2,a2,0x1
   111b0:	0387069b          	addiw	a3,a4,56
   111b4:	060e                	slli	a2,a2,0x3
   111b6:	b739                	j	0x110c4
   111b8:	05340e63          	beq	s0,s3,0x11214
   111bc:	0109b403          	ld	s0,16(s3)
   111c0:	6c42                	ld	s8,16(sp)
   111c2:	641c                	ld	a5,8(s0)
   111c4:	b569                	j	0x1104e
   111c6:	05c7859b          	addiw	a1,a5,92
   111ca:	0015961b          	slliw	a2,a1,0x1
   111ce:	05b7881b          	addiw	a6,a5,91
   111d2:	060e                	slli	a2,a2,0x3
   111d4:	b95d                	j	0x10e8a
   111d6:	01033783          	ld	a5,16(t1)
   111da:	35fd                	addiw	a1,a1,-1
   111dc:	20679263          	bne	a5,t1,0x113e0
   111e0:	0035f793          	andi	a5,a1,3
   111e4:	1341                	addi	t1,t1,-16
   111e6:	fbe5                	bnez	a5,0x111d6
   111e8:	0089b703          	ld	a4,8(s3)
   111ec:	fff64793          	not	a5,a2
   111f0:	8ff9                	and	a5,a5,a4
   111f2:	00f9b423          	sd	a5,8(s3)
   111f6:	0606                	slli	a2,a2,0x1
   111f8:	dac7e8e3          	bltu	a5,a2,0x10fa8
   111fc:	da0606e3          	beqz	a2,0x10fa8
   11200:	00f67733          	and	a4,a2,a5
   11204:	e711                	bnez	a4,0x11210
   11206:	0606                	slli	a2,a2,0x1
   11208:	00f67733          	and	a4,a2,a5
   1120c:	2e11                	addiw	t3,t3,4
   1120e:	df65                	beqz	a4,0x11206
   11210:	85f2                	mv	a1,t3
   11212:	bb1d                	j	0x10f48
   11214:	48018c13          	addi	s8,gp,1152
   11218:	000c2783          	lw	a5,0(s8)
   1121c:	014786bb          	addw	a3,a5,s4
   11220:	00dc2023          	sw	a3,0(s8)
   11224:	000cb703          	ld	a4,0(s9)
   11228:	57fd                	li	a5,-1
   1122a:	12f70c63          	beq	a4,a5,0x11362
   1122e:	417b07b3          	sub	a5,s6,s7
   11232:	9fb5                	addw	a5,a5,a3
   11234:	00fc2023          	sw	a5,0(s8)
   11238:	00fb7c93          	andi	s9,s6,15
   1123c:	0a0c8563          	beqz	s9,0x112e6
   11240:	419b0b33          	sub	s6,s6,s9
   11244:	6705                	lui	a4,0x1
   11246:	0741                	addi	a4,a4,16 # 0x1010
   11248:	0b41                	addi	s6,s6,16
   1124a:	41970bb3          	sub	s7,a4,s9
   1124e:	9a5a                	add	s4,s4,s6
   11250:	414b8bb3          	sub	s7,s7,s4
   11254:	1bd2                	slli	s7,s7,0x34
   11256:	034bdb93          	srli	s7,s7,0x34
   1125a:	85de                	mv	a1,s7
   1125c:	854a                	mv	a0,s2
   1125e:	055000ef          	jal	0x11ab2
   11262:	57fd                	li	a5,-1
   11264:	12f50e63          	beq	a0,a5,0x113a0
   11268:	41650533          	sub	a0,a0,s6
   1126c:	000b869b          	sext.w	a3,s7
   11270:	01750a33          	add	s4,a0,s7
   11274:	000c2703          	lw	a4,0(s8)
   11278:	0169b823          	sd	s6,16(s3)
   1127c:	001a6793          	ori	a5,s4,1
   11280:	9f35                	addw	a4,a4,a3
   11282:	00ec2023          	sw	a4,0(s8)
   11286:	00fb3423          	sd	a5,8(s6)
   1128a:	db3404e3          	beq	s0,s3,0x11032
   1128e:	467d                	li	a2,31
   11290:	07567b63          	bgeu	a2,s5,0x11306
   11294:	6414                	ld	a3,8(s0)
   11296:	fe8a8793          	addi	a5,s5,-24
   1129a:	9bc1                	andi	a5,a5,-16
   1129c:	8a85                	andi	a3,a3,1
   1129e:	8edd                	or	a3,a3,a5
   112a0:	e414                	sd	a3,8(s0)
   112a2:	45a5                	li	a1,9
   112a4:	00f406b3          	add	a3,s0,a5
   112a8:	e68c                	sd	a1,8(a3)
   112aa:	ea8c                	sd	a1,16(a3)
   112ac:	00f66563          	bltu	a2,a5,0x112b6
   112b0:	008b3783          	ld	a5,8(s6)
   112b4:	bbbd                	j	0x11032
   112b6:	01040593          	addi	a1,s0,16
   112ba:	854a                	mv	a0,s2
   112bc:	8d3ff0ef          	jal	0x10b8e
   112c0:	0109bb03          	ld	s6,16(s3)
   112c4:	000c2703          	lw	a4,0(s8)
   112c8:	008b3783          	ld	a5,8(s6)
   112cc:	b39d                	j	0x11032
   112ce:	020a0a13          	addi	s4,s4,32
   112d2:	bb31                	j	0x10fee
   112d4:	4026d69b          	sraiw	a3,a3,0x2
   112d8:	4785                	li	a5,1
   112da:	00d797b3          	sll	a5,a5,a3
   112de:	8d5d                	or	a0,a0,a5
   112e0:	00a9b423          	sd	a0,8(s3)
   112e4:	bbf5                	j	0x110e0
   112e6:	014b0bb3          	add	s7,s6,s4
   112ea:	41700bb3          	neg	s7,s7
   112ee:	1bd2                	slli	s7,s7,0x34
   112f0:	034bdb93          	srli	s7,s7,0x34
   112f4:	85de                	mv	a1,s7
   112f6:	854a                	mv	a0,s2
   112f8:	7ba000ef          	jal	0x11ab2
   112fc:	57fd                	li	a5,-1
   112fe:	4681                	li	a3,0
   11300:	f6f514e3          	bne	a0,a5,0x11268
   11304:	bf85                	j	0x11274
   11306:	6c42                	ld	s8,16(sp)
   11308:	4785                	li	a5,1
   1130a:	00fb3423          	sd	a5,8(s6)
   1130e:	854a                	mv	a0,s2
   11310:	0de000ef          	jal	0x113ee
   11314:	4501                	li	a0,0
   11316:	7a42                	ld	s4,48(sp)
   11318:	7aa2                	ld	s5,40(sp)
   1131a:	7b02                	ld	s6,32(sp)
   1131c:	6be2                	ld	s7,24(sp)
   1131e:	6ca2                	ld	s9,8(sp)
   11320:	be39                	j	0x10e3e
   11322:	05400693          	li	a3,84
   11326:	04e6e163          	bltu	a3,a4,0x11368
   1132a:	00c7d713          	srli	a4,a5,0xc
   1132e:	06f7061b          	addiw	a2,a4,111
   11332:	0016161b          	slliw	a2,a2,0x1
   11336:	06e7069b          	addiw	a3,a4,110
   1133a:	060e                	slli	a2,a2,0x3
   1133c:	b361                	j	0x110c4
   1133e:	15400713          	li	a4,340
   11342:	04f76163          	bltu	a4,a5,0x11384
   11346:	00f4d793          	srli	a5,s1,0xf
   1134a:	0787859b          	addiw	a1,a5,120
   1134e:	0015961b          	slliw	a2,a1,0x1
   11352:	0777881b          	addiw	a6,a5,119
   11356:	060e                	slli	a2,a2,0x3
   11358:	be0d                	j	0x10e8a
   1135a:	0109b403          	ld	s0,16(s3)
   1135e:	641c                	ld	a5,8(s0)
   11360:	b1fd                	j	0x1104e
   11362:	016cb023          	sd	s6,0(s9)
   11366:	bdc9                	j	0x11238
   11368:	15400693          	li	a3,340
   1136c:	04e6e063          	bltu	a3,a4,0x113ac
   11370:	00f7d713          	srli	a4,a5,0xf
   11374:	0787061b          	addiw	a2,a4,120
   11378:	0016161b          	slliw	a2,a2,0x1
   1137c:	0777069b          	addiw	a3,a4,119
   11380:	060e                	slli	a2,a2,0x3
   11382:	b389                	j	0x110c4
   11384:	55400713          	li	a4,1364
   11388:	04f76063          	bltu	a4,a5,0x113c8
   1138c:	0124d793          	srli	a5,s1,0x12
   11390:	07d7859b          	addiw	a1,a5,125
   11394:	0015961b          	slliw	a2,a1,0x1
   11398:	07c7881b          	addiw	a6,a5,124
   1139c:	060e                	slli	a2,a2,0x3
   1139e:	b4f5                	j	0x10e8a
   113a0:	1cc1                	addi	s9,s9,-16
   113a2:	9a66                	add	s4,s4,s9
   113a4:	416a0a33          	sub	s4,s4,s6
   113a8:	4681                	li	a3,0
   113aa:	b5e9                	j	0x11274
   113ac:	55400693          	li	a3,1364
   113b0:	02e6e363          	bltu	a3,a4,0x113d6
   113b4:	0127d713          	srli	a4,a5,0x12
   113b8:	07d7061b          	addiw	a2,a4,125
   113bc:	0016161b          	slliw	a2,a2,0x1
   113c0:	07c7069b          	addiw	a3,a4,124
   113c4:	060e                	slli	a2,a2,0x3
   113c6:	b9fd                	j	0x110c4
   113c8:	7f000613          	li	a2,2032
   113cc:	07f00593          	li	a1,127
   113d0:	07e00813          	li	a6,126
   113d4:	bc5d                	j	0x10e8a
   113d6:	7f000613          	li	a2,2032
   113da:	07e00693          	li	a3,126
   113de:	b1dd                	j	0x110c4
   113e0:	0089b783          	ld	a5,8(s3)
   113e4:	bd09                	j	0x111f6
   113e6:	1d818513          	addi	a0,gp,472
   113ea:	d26ff06f          	j	0x10910
   113ee:	1d818513          	addi	a0,gp,472
   113f2:	d2aff06f          	j	0x1091c
   113f6:	1101                	addi	sp,sp,-32
   113f8:	ec06                	sd	ra,24(sp)
   113fa:	e04a                	sd	s2,0(sp)
   113fc:	c9d9                	beqz	a1,0x11492
   113fe:	e822                	sd	s0,16(sp)
   11400:	e426                	sd	s1,8(sp)
   11402:	842e                	mv	s0,a1
   11404:	84aa                	mv	s1,a0
   11406:	c119                	beqz	a0,0x1140c
   11408:	653c                	ld	a5,72(a0)
   1140a:	c7cd                	beqz	a5,0x114b4
   1140c:	0b042783          	lw	a5,176(s0)
   11410:	01041703          	lh	a4,16(s0)
   11414:	8b85                	andi	a5,a5,1
   11416:	ebbd                	bnez	a5,0x1148c
   11418:	20077713          	andi	a4,a4,512
   1141c:	cf59                	beqz	a4,0x114ba
   1141e:	85a2                	mv	a1,s0
   11420:	8526                	mv	a0,s1
   11422:	0ca000ef          	jal	0x114ec
   11426:	683c                	ld	a5,80(s0)
   11428:	892a                	mv	s2,a0
   1142a:	c791                	beqz	a5,0x11436
   1142c:	780c                	ld	a1,48(s0)
   1142e:	8526                	mv	a0,s1
   11430:	9782                	jalr	a5
   11432:	06054663          	bltz	a0,0x1149e
   11436:	01045783          	lhu	a5,16(s0)
   1143a:	0807f793          	andi	a5,a5,128
   1143e:	e7b5                	bnez	a5,0x114aa
   11440:	6c2c                	ld	a1,88(s0)
   11442:	c991                	beqz	a1,0x11456
   11444:	07440793          	addi	a5,s0,116
   11448:	00f58563          	beq	a1,a5,0x11452
   1144c:	8526                	mv	a0,s1
   1144e:	f40ff0ef          	jal	0x10b8e
   11452:	04043c23          	sd	zero,88(s0)
   11456:	7c2c                	ld	a1,120(s0)
   11458:	c591                	beqz	a1,0x11464
   1145a:	8526                	mv	a0,s1
   1145c:	f32ff0ef          	jal	0x10b8e
   11460:	06043c23          	sd	zero,120(s0)
   11464:	910ff0ef          	jal	0x10574
   11468:	0b042783          	lw	a5,176(s0)
   1146c:	00041823          	sh	zero,16(s0)
   11470:	8b85                	andi	a5,a5,1
   11472:	c7ad                	beqz	a5,0x114dc
   11474:	7048                	ld	a0,160(s0)
   11476:	c96ff0ef          	jal	0x1090c
   1147a:	900ff0ef          	jal	0x1057a
   1147e:	60e2                	ld	ra,24(sp)
   11480:	6442                	ld	s0,16(sp)
   11482:	64a2                	ld	s1,8(sp)
   11484:	854a                	mv	a0,s2
   11486:	6902                	ld	s2,0(sp)
   11488:	6105                	addi	sp,sp,32
   1148a:	8082                	ret
   1148c:	fb49                	bnez	a4,0x1141e
   1148e:	6442                	ld	s0,16(sp)
   11490:	64a2                	ld	s1,8(sp)
   11492:	4901                	li	s2,0
   11494:	60e2                	ld	ra,24(sp)
   11496:	854a                	mv	a0,s2
   11498:	6902                	ld	s2,0(sp)
   1149a:	6105                	addi	sp,sp,32
   1149c:	8082                	ret
   1149e:	01045783          	lhu	a5,16(s0)
   114a2:	597d                	li	s2,-1
   114a4:	0807f793          	andi	a5,a5,128
   114a8:	dfc1                	beqz	a5,0x11440
   114aa:	6c0c                	ld	a1,24(s0)
   114ac:	8526                	mv	a0,s1
   114ae:	ee0ff0ef          	jal	0x10b8e
   114b2:	b779                	j	0x11440
   114b4:	880ff0ef          	jal	0x10534
   114b8:	bf91                	j	0x1140c
   114ba:	7048                	ld	a0,160(s0)
   114bc:	c54ff0ef          	jal	0x10910
   114c0:	01041783          	lh	a5,16(s0)
   114c4:	ffa9                	bnez	a5,0x1141e
   114c6:	0b042783          	lw	a5,176(s0)
   114ca:	8b85                	andi	a5,a5,1
   114cc:	f3e9                	bnez	a5,0x1148e
   114ce:	7048                	ld	a0,160(s0)
   114d0:	4901                	li	s2,0
   114d2:	c4aff0ef          	jal	0x1091c
   114d6:	6442                	ld	s0,16(sp)
   114d8:	64a2                	ld	s1,8(sp)
   114da:	bf6d                	j	0x11494
   114dc:	7048                	ld	a0,160(s0)
   114de:	c3eff0ef          	jal	0x1091c
   114e2:	bf49                	j	0x11474
   114e4:	85aa                	mv	a1,a0
   114e6:	1881b503          	ld	a0,392(gp)
   114ea:	b731                	j	0x113f6
   114ec:	01059703          	lh	a4,16(a1)
   114f0:	7179                	addi	sp,sp,-48
   114f2:	f022                	sd	s0,32(sp)
   114f4:	e44e                	sd	s3,8(sp)
   114f6:	f406                	sd	ra,40(sp)
   114f8:	00877793          	andi	a5,a4,8
   114fc:	842e                	mv	s0,a1
   114fe:	89aa                	mv	s3,a0
   11500:	e7f1                	bnez	a5,0x115cc
   11502:	6785                	lui	a5,0x1
   11504:	80078793          	addi	a5,a5,-2048 # 0x800
   11508:	4594                	lw	a3,8(a1)
   1150a:	8fd9                	or	a5,a5,a4
   1150c:	00f59823          	sh	a5,16(a1)
   11510:	10d05763          	blez	a3,0x1161e
   11514:	04843803          	ld	a6,72(s0)
   11518:	0a080463          	beqz	a6,0x115c0
   1151c:	ec26                	sd	s1,24(sp)
   1151e:	03371693          	slli	a3,a4,0x33
   11522:	0009a483          	lw	s1,0(s3)
   11526:	0009a023          	sw	zero,0(s3)
   1152a:	780c                	ld	a1,48(s0)
   1152c:	1006c063          	bltz	a3,0x1162c
   11530:	4601                	li	a2,0
   11532:	4685                	li	a3,1
   11534:	854e                	mv	a0,s3
   11536:	9802                	jalr	a6
   11538:	57fd                	li	a5,-1
   1153a:	862a                	mv	a2,a0
   1153c:	12f50163          	beq	a0,a5,0x1165e
   11540:	01041783          	lh	a5,16(s0)
   11544:	04843803          	ld	a6,72(s0)
   11548:	780c                	ld	a1,48(s0)
   1154a:	8b91                	andi	a5,a5,4
   1154c:	c799                	beqz	a5,0x1155a
   1154e:	4418                	lw	a4,8(s0)
   11550:	6c3c                	ld	a5,88(s0)
   11552:	8e19                	sub	a2,a2,a4
   11554:	c399                	beqz	a5,0x1155a
   11556:	583c                	lw	a5,112(s0)
   11558:	8e1d                	sub	a2,a2,a5
   1155a:	4681                	li	a3,0
   1155c:	854e                	mv	a0,s3
   1155e:	9802                	jalr	a6
   11560:	57fd                	li	a5,-1
   11562:	0cf51763          	bne	a0,a5,0x11630
   11566:	0009a683          	lw	a3,0(s3)
   1156a:	47f5                	li	a5,29
   1156c:	01041703          	lh	a4,16(s0)
   11570:	0006861b          	sext.w	a2,a3
   11574:	10d7e163          	bltu	a5,a3,0x11676
   11578:	204007b7          	lui	a5,0x20400
   1157c:	0785                	addi	a5,a5,1 # 0x20400001
   1157e:	00c7d7b3          	srl	a5,a5,a2
   11582:	8b85                	andi	a5,a5,1
   11584:	cbed                	beqz	a5,0x11676
   11586:	6c10                	ld	a2,24(s0)
   11588:	77fd                	lui	a5,0xfffff
   1158a:	7ff78793          	addi	a5,a5,2047 # 0xfffffffffffff7ff
   1158e:	8ff9                	and	a5,a5,a4
   11590:	00f41823          	sh	a5,16(s0)
   11594:	00042423          	sw	zero,8(s0)
   11598:	e010                	sd	a2,0(s0)
   1159a:	03371793          	slli	a5,a4,0x33
   1159e:	0007d363          	bgez	a5,0x115a4
   115a2:	c6dd                	beqz	a3,0x11650
   115a4:	6c2c                	ld	a1,88(s0)
   115a6:	0099a023          	sw	s1,0(s3)
   115aa:	c9c5                	beqz	a1,0x1165a
   115ac:	07440793          	addi	a5,s0,116
   115b0:	00f58563          	beq	a1,a5,0x115ba
   115b4:	854e                	mv	a0,s3
   115b6:	dd8ff0ef          	jal	0x10b8e
   115ba:	64e2                	ld	s1,24(sp)
   115bc:	04043c23          	sd	zero,88(s0)
   115c0:	4501                	li	a0,0
   115c2:	70a2                	ld	ra,40(sp)
   115c4:	7402                	ld	s0,32(sp)
   115c6:	69a2                	ld	s3,8(sp)
   115c8:	6145                	addi	sp,sp,48
   115ca:	8082                	ret
   115cc:	e84a                	sd	s2,16(sp)
   115ce:	0185b903          	ld	s2,24(a1)
   115d2:	04090b63          	beqz	s2,0x11628
   115d6:	ec26                	sd	s1,24(sp)
   115d8:	6184                	ld	s1,0(a1)
   115da:	8b0d                	andi	a4,a4,3
   115dc:	0125b023          	sd	s2,0(a1)
   115e0:	412484bb          	subw	s1,s1,s2
   115e4:	4781                	li	a5,0
   115e6:	e311                	bnez	a4,0x115ea
   115e8:	519c                	lw	a5,32(a1)
   115ea:	c45c                	sw	a5,12(s0)
   115ec:	00904663          	bgtz	s1,0x115f8
   115f0:	a81d                	j	0x11626
   115f2:	992a                	add	s2,s2,a0
   115f4:	02905963          	blez	s1,0x11626
   115f8:	603c                	ld	a5,64(s0)
   115fa:	780c                	ld	a1,48(s0)
   115fc:	86a6                	mv	a3,s1
   115fe:	864a                	mv	a2,s2
   11600:	854e                	mv	a0,s3
   11602:	9782                	jalr	a5
   11604:	9c89                	subw	s1,s1,a0
   11606:	fea046e3          	bgtz	a0,0x115f2
   1160a:	01041703          	lh	a4,16(s0)
   1160e:	6942                	ld	s2,16(sp)
   11610:	04076713          	ori	a4,a4,64
   11614:	64e2                	ld	s1,24(sp)
   11616:	00e41823          	sh	a4,16(s0)
   1161a:	557d                	li	a0,-1
   1161c:	b75d                	j	0x115c2
   1161e:	59b4                	lw	a3,112(a1)
   11620:	eed04ae3          	bgtz	a3,0x11514
   11624:	bf71                	j	0x115c0
   11626:	64e2                	ld	s1,24(sp)
   11628:	6942                	ld	s2,16(sp)
   1162a:	bf59                	j	0x115c0
   1162c:	6850                	ld	a2,144(s0)
   1162e:	bf31                	j	0x1154a
   11630:	01041703          	lh	a4,16(s0)
   11634:	6c14                	ld	a3,24(s0)
   11636:	77fd                	lui	a5,0xfffff
   11638:	7ff78793          	addi	a5,a5,2047 # 0xfffffffffffff7ff
   1163c:	8ff9                	and	a5,a5,a4
   1163e:	00f41823          	sh	a5,16(s0)
   11642:	00042423          	sw	zero,8(s0)
   11646:	e014                	sd	a3,0(s0)
   11648:	03371793          	slli	a5,a4,0x33
   1164c:	f407dce3          	bgez	a5,0x115a4
   11650:	6c2c                	ld	a1,88(s0)
   11652:	e848                	sd	a0,144(s0)
   11654:	0099a023          	sw	s1,0(s3)
   11658:	f9b1                	bnez	a1,0x115ac
   1165a:	64e2                	ld	s1,24(sp)
   1165c:	b795                	j	0x115c0
   1165e:	0009a783          	lw	a5,0(s3)
   11662:	ec078fe3          	beqz	a5,0x11540
   11666:	4775                	li	a4,29
   11668:	00e78a63          	beq	a5,a4,0x1167c
   1166c:	4759                	li	a4,22
   1166e:	00e78763          	beq	a5,a4,0x1167c
   11672:	01041703          	lh	a4,16(s0)
   11676:	04076713          	ori	a4,a4,64
   1167a:	bf69                	j	0x11614
   1167c:	0099a023          	sw	s1,0(s3)
   11680:	64e2                	ld	s1,24(sp)
   11682:	bf3d                	j	0x115c0
   11684:	1101                	addi	sp,sp,-32
   11686:	e822                	sd	s0,16(sp)
   11688:	e426                	sd	s1,8(sp)
   1168a:	ec06                	sd	ra,24(sp)
   1168c:	e04a                	sd	s2,0(sp)
   1168e:	84aa                	mv	s1,a0
   11690:	842e                	mv	s0,a1
   11692:	c119                	beqz	a0,0x11698
   11694:	653c                	ld	a5,72(a0)
   11696:	cba5                	beqz	a5,0x11706
   11698:	01041783          	lh	a5,16(s0)
   1169c:	4901                	li	s2,0
   1169e:	c795                	beqz	a5,0x116ca
   116a0:	0b042703          	lw	a4,176(s0)
   116a4:	8b05                	andi	a4,a4,1
   116a6:	e701                	bnez	a4,0x116ae
   116a8:	2007f793          	andi	a5,a5,512
   116ac:	c795                	beqz	a5,0x116d8
   116ae:	85a2                	mv	a1,s0
   116b0:	8526                	mv	a0,s1
   116b2:	e3bff0ef          	jal	0x114ec
   116b6:	0b042783          	lw	a5,176(s0)
   116ba:	892a                	mv	s2,a0
   116bc:	8b85                	andi	a5,a5,1
   116be:	e791                	bnez	a5,0x116ca
   116c0:	01045783          	lhu	a5,16(s0)
   116c4:	2007f793          	andi	a5,a5,512
   116c8:	c78d                	beqz	a5,0x116f2
   116ca:	60e2                	ld	ra,24(sp)
   116cc:	6442                	ld	s0,16(sp)
   116ce:	64a2                	ld	s1,8(sp)
   116d0:	854a                	mv	a0,s2
   116d2:	6902                	ld	s2,0(sp)
   116d4:	6105                	addi	sp,sp,32
   116d6:	8082                	ret
   116d8:	7048                	ld	a0,160(s0)
   116da:	a36ff0ef          	jal	0x10910
   116de:	85a2                	mv	a1,s0
   116e0:	8526                	mv	a0,s1
   116e2:	e0bff0ef          	jal	0x114ec
   116e6:	0b042783          	lw	a5,176(s0)
   116ea:	892a                	mv	s2,a0
   116ec:	8b85                	andi	a5,a5,1
   116ee:	fff1                	bnez	a5,0x116ca
   116f0:	bfc1                	j	0x116c0
   116f2:	7048                	ld	a0,160(s0)
   116f4:	a28ff0ef          	jal	0x1091c
   116f8:	60e2                	ld	ra,24(sp)
   116fa:	6442                	ld	s0,16(sp)
   116fc:	64a2                	ld	s1,8(sp)
   116fe:	854a                	mv	a0,s2
   11700:	6902                	ld	s2,0(sp)
   11702:	6105                	addi	sp,sp,32
   11704:	8082                	ret
   11706:	e2ffe0ef          	jal	0x10534
   1170a:	b779                	j	0x11698
   1170c:	c935                	beqz	a0,0x11780
   1170e:	1101                	addi	sp,sp,-32
   11710:	e822                	sd	s0,16(sp)
   11712:	e04a                	sd	s2,0(sp)
   11714:	ec06                	sd	ra,24(sp)
   11716:	e426                	sd	s1,8(sp)
   11718:	1881b903          	ld	s2,392(gp)
   1171c:	842a                	mv	s0,a0
   1171e:	00090563          	beqz	s2,0x11728
   11722:	04893783          	ld	a5,72(s2)
   11726:	c3a9                	beqz	a5,0x11768
   11728:	01041783          	lh	a5,16(s0)
   1172c:	4481                	li	s1,0
   1172e:	c795                	beqz	a5,0x1175a
   11730:	0b042703          	lw	a4,176(s0)
   11734:	8b05                	andi	a4,a4,1
   11736:	e701                	bnez	a4,0x1173e
   11738:	2007f793          	andi	a5,a5,512
   1173c:	cb95                	beqz	a5,0x11770
   1173e:	85a2                	mv	a1,s0
   11740:	854a                	mv	a0,s2
   11742:	dabff0ef          	jal	0x114ec
   11746:	0b042783          	lw	a5,176(s0)
   1174a:	84aa                	mv	s1,a0
   1174c:	8b85                	andi	a5,a5,1
   1174e:	e791                	bnez	a5,0x1175a
   11750:	01045783          	lhu	a5,16(s0)
   11754:	2007f793          	andi	a5,a5,512
   11758:	c385                	beqz	a5,0x11778
   1175a:	60e2                	ld	ra,24(sp)
   1175c:	6442                	ld	s0,16(sp)
   1175e:	6902                	ld	s2,0(sp)
   11760:	8526                	mv	a0,s1
   11762:	64a2                	ld	s1,8(sp)
   11764:	6105                	addi	sp,sp,32
   11766:	8082                	ret
   11768:	854a                	mv	a0,s2
   1176a:	dcbfe0ef          	jal	0x10534
   1176e:	bf6d                	j	0x11728
   11770:	7048                	ld	a0,160(s0)
   11772:	99eff0ef          	jal	0x10910
   11776:	b7e1                	j	0x1173e
   11778:	7048                	ld	a0,160(s0)
   1177a:	9a2ff0ef          	jal	0x1091c
   1177e:	bff1                	j	0x1175a
   11780:	00001617          	auipc	a2,0x1
   11784:	8a060613          	addi	a2,a2,-1888 # 0x12020
   11788:	00000597          	auipc	a1,0x0
   1178c:	efc58593          	addi	a1,a1,-260 # 0x11684
   11790:	00001517          	auipc	a0,0x1
   11794:	8a850513          	addi	a0,a0,-1880 # 0x12038
   11798:	e31fe06f          	j	0x105c8
   1179c:	7179                	addi	sp,sp,-48
   1179e:	f022                	sd	s0,32(sp)
   117a0:	ec4a                	sd	s2,24(sp)
   117a2:	f406                	sd	ra,40(sp)
   117a4:	892a                	mv	s2,a0
   117a6:	8432                	mv	s0,a2
   117a8:	c119                	beqz	a0,0x117ae
   117aa:	653c                	ld	a5,72(a0)
   117ac:	c7c1                	beqz	a5,0x11834
   117ae:	0b042783          	lw	a5,176(s0)
   117b2:	8b85                	andi	a5,a5,1
   117b4:	e791                	bnez	a5,0x117c0
   117b6:	01045783          	lhu	a5,16(s0)
   117ba:	2007f793          	andi	a5,a5,512
   117be:	cfa1                	beqz	a5,0x11816
   117c0:	445c                	lw	a5,12(s0)
   117c2:	fff7871b          	addiw	a4,a5,-1
   117c6:	c458                	sw	a4,12(s0)
   117c8:	00075a63          	bgez	a4,0x117dc
   117cc:	541c                	lw	a5,40(s0)
   117ce:	02f74e63          	blt	a4,a5,0x1180a
   117d2:	0ff5f793          	zext.b	a5,a1
   117d6:	4729                	li	a4,10
   117d8:	02e78963          	beq	a5,a4,0x1180a
   117dc:	601c                	ld	a5,0(s0)
   117de:	0ff5f913          	zext.b	s2,a1
   117e2:	00178713          	addi	a4,a5,1
   117e6:	e018                	sd	a4,0(s0)
   117e8:	00b78023          	sb	a1,0(a5)
   117ec:	0b042783          	lw	a5,176(s0)
   117f0:	8b85                	andi	a5,a5,1
   117f2:	e791                	bnez	a5,0x117fe
   117f4:	01045783          	lhu	a5,16(s0)
   117f8:	2007f793          	andi	a5,a5,512
   117fc:	c39d                	beqz	a5,0x11822
   117fe:	70a2                	ld	ra,40(sp)
   11800:	7402                	ld	s0,32(sp)
   11802:	854a                	mv	a0,s2
   11804:	6962                	ld	s2,24(sp)
   11806:	6145                	addi	sp,sp,48
   11808:	8082                	ret
   1180a:	854a                	mv	a0,s2
   1180c:	8622                	mv	a2,s0
   1180e:	0dc000ef          	jal	0x118ea
   11812:	892a                	mv	s2,a0
   11814:	bfe1                	j	0x117ec
   11816:	7048                	ld	a0,160(s0)
   11818:	e42e                	sd	a1,8(sp)
   1181a:	8f6ff0ef          	jal	0x10910
   1181e:	65a2                	ld	a1,8(sp)
   11820:	b745                	j	0x117c0
   11822:	7048                	ld	a0,160(s0)
   11824:	8f8ff0ef          	jal	0x1091c
   11828:	70a2                	ld	ra,40(sp)
   1182a:	7402                	ld	s0,32(sp)
   1182c:	854a                	mv	a0,s2
   1182e:	6962                	ld	s2,24(sp)
   11830:	6145                	addi	sp,sp,48
   11832:	8082                	ret
   11834:	e42e                	sd	a1,8(sp)
   11836:	cfffe0ef          	jal	0x10534
   1183a:	65a2                	ld	a1,8(sp)
   1183c:	bf8d                	j	0x117ae
   1183e:	1101                	addi	sp,sp,-32
   11840:	e822                	sd	s0,16(sp)
   11842:	e426                	sd	s1,8(sp)
   11844:	e04a                	sd	s2,0(sp)
   11846:	ec06                	sd	ra,24(sp)
   11848:	1881b903          	ld	s2,392(gp)
   1184c:	84aa                	mv	s1,a0
   1184e:	842e                	mv	s0,a1
   11850:	00090563          	beqz	s2,0x1185a
   11854:	04893783          	ld	a5,72(s2)
   11858:	c7c9                	beqz	a5,0x118e2
   1185a:	0b042783          	lw	a5,176(s0)
   1185e:	8b85                	andi	a5,a5,1
   11860:	e791                	bnez	a5,0x1186c
   11862:	01045783          	lhu	a5,16(s0)
   11866:	2007f793          	andi	a5,a5,512
   1186a:	cfb1                	beqz	a5,0x118c6
   1186c:	445c                	lw	a5,12(s0)
   1186e:	fff7871b          	addiw	a4,a5,-1
   11872:	c458                	sw	a4,12(s0)
   11874:	00075a63          	bgez	a4,0x11888
   11878:	541c                	lw	a5,40(s0)
   1187a:	02f74f63          	blt	a4,a5,0x118b8
   1187e:	0ff4f793          	zext.b	a5,s1
   11882:	4729                	li	a4,10
   11884:	02e78a63          	beq	a5,a4,0x118b8
   11888:	601c                	ld	a5,0(s0)
   1188a:	0ff4f913          	zext.b	s2,s1
   1188e:	00178713          	addi	a4,a5,1
   11892:	e018                	sd	a4,0(s0)
   11894:	00978023          	sb	s1,0(a5)
   11898:	0b042783          	lw	a5,176(s0)
   1189c:	8b85                	andi	a5,a5,1
   1189e:	e791                	bnez	a5,0x118aa
   118a0:	01045783          	lhu	a5,16(s0)
   118a4:	2007f793          	andi	a5,a5,512
   118a8:	c39d                	beqz	a5,0x118ce
   118aa:	60e2                	ld	ra,24(sp)
   118ac:	6442                	ld	s0,16(sp)
   118ae:	64a2                	ld	s1,8(sp)
   118b0:	854a                	mv	a0,s2
   118b2:	6902                	ld	s2,0(sp)
   118b4:	6105                	addi	sp,sp,32
   118b6:	8082                	ret
   118b8:	854a                	mv	a0,s2
   118ba:	8622                	mv	a2,s0
   118bc:	85a6                	mv	a1,s1
   118be:	02c000ef          	jal	0x118ea
   118c2:	892a                	mv	s2,a0
   118c4:	bfd1                	j	0x11898
   118c6:	7048                	ld	a0,160(s0)
   118c8:	848ff0ef          	jal	0x10910
   118cc:	b745                	j	0x1186c
   118ce:	7048                	ld	a0,160(s0)
   118d0:	84cff0ef          	jal	0x1091c
   118d4:	60e2                	ld	ra,24(sp)
   118d6:	6442                	ld	s0,16(sp)
   118d8:	64a2                	ld	s1,8(sp)
   118da:	854a                	mv	a0,s2
   118dc:	6902                	ld	s2,0(sp)
   118de:	6105                	addi	sp,sp,32
   118e0:	8082                	ret
   118e2:	854a                	mv	a0,s2
   118e4:	c51fe0ef          	jal	0x10534
   118e8:	bf8d                	j	0x1185a
   118ea:	7179                	addi	sp,sp,-48
   118ec:	f022                	sd	s0,32(sp)
   118ee:	ec26                	sd	s1,24(sp)
   118f0:	e84a                	sd	s2,16(sp)
   118f2:	f406                	sd	ra,40(sp)
   118f4:	892a                	mv	s2,a0
   118f6:	84ae                	mv	s1,a1
   118f8:	8432                	mv	s0,a2
   118fa:	c119                	beqz	a0,0x11900
   118fc:	653c                	ld	a5,72(a0)
   118fe:	c7e9                	beqz	a5,0x119c8
   11900:	5418                	lw	a4,40(s0)
   11902:	01041783          	lh	a5,16(s0)
   11906:	c458                	sw	a4,12(s0)
   11908:	0087f713          	andi	a4,a5,8
   1190c:	c325                	beqz	a4,0x1196c
   1190e:	6c18                	ld	a4,24(s0)
   11910:	cf31                	beqz	a4,0x1196c
   11912:	e44e                	sd	s3,8(sp)
   11914:	03279693          	slli	a3,a5,0x32
   11918:	0ff4f993          	zext.b	s3,s1
   1191c:	0b042703          	lw	a4,176(s0)
   11920:	84ce                	mv	s1,s3
   11922:	0606d663          	bgez	a3,0x1198e
   11926:	03271793          	slli	a5,a4,0x32
   1192a:	0807c463          	bltz	a5,0x119b2
   1192e:	6018                	ld	a4,0(s0)
   11930:	6c1c                	ld	a5,24(s0)
   11932:	5014                	lw	a3,32(s0)
   11934:	40f707bb          	subw	a5,a4,a5
   11938:	08d7d063          	bge	a5,a3,0x119b8
   1193c:	2785                	addiw	a5,a5,1
   1193e:	4454                	lw	a3,12(s0)
   11940:	00170613          	addi	a2,a4,1
   11944:	e010                	sd	a2,0(s0)
   11946:	36fd                	addiw	a3,a3,-1
   11948:	c454                	sw	a3,12(s0)
   1194a:	01370023          	sb	s3,0(a4)
   1194e:	5018                	lw	a4,32(s0)
   11950:	04f70c63          	beq	a4,a5,0x119a8
   11954:	01045783          	lhu	a5,16(s0)
   11958:	8b85                	andi	a5,a5,1
   1195a:	e7a1                	bnez	a5,0x119a2
   1195c:	69a2                	ld	s3,8(sp)
   1195e:	70a2                	ld	ra,40(sp)
   11960:	7402                	ld	s0,32(sp)
   11962:	6942                	ld	s2,16(sp)
   11964:	8526                	mv	a0,s1
   11966:	64e2                	ld	s1,24(sp)
   11968:	6145                	addi	sp,sp,48
   1196a:	8082                	ret
   1196c:	85a2                	mv	a1,s0
   1196e:	854a                	mv	a0,s2
   11970:	068000ef          	jal	0x119d8
   11974:	e121                	bnez	a0,0x119b4
   11976:	01041783          	lh	a5,16(s0)
   1197a:	e44e                	sd	s3,8(sp)
   1197c:	0ff4f993          	zext.b	s3,s1
   11980:	03279693          	slli	a3,a5,0x32
   11984:	0b042703          	lw	a4,176(s0)
   11988:	84ce                	mv	s1,s3
   1198a:	f806cee3          	bltz	a3,0x11926
   1198e:	76f9                	lui	a3,0xffffe
   11990:	16fd                	addi	a3,a3,-1 # 0xffffffffffffdfff
   11992:	6609                	lui	a2,0x2
   11994:	8fd1                	or	a5,a5,a2
   11996:	8f75                	and	a4,a4,a3
   11998:	00f41823          	sh	a5,16(s0)
   1199c:	0ae42823          	sw	a4,176(s0)
   119a0:	b759                	j	0x11926
   119a2:	47a9                	li	a5,10
   119a4:	faf49ce3          	bne	s1,a5,0x1195c
   119a8:	85a2                	mv	a1,s0
   119aa:	854a                	mv	a0,s2
   119ac:	cd9ff0ef          	jal	0x11684
   119b0:	d555                	beqz	a0,0x1195c
   119b2:	69a2                	ld	s3,8(sp)
   119b4:	54fd                	li	s1,-1
   119b6:	b765                	j	0x1195e
   119b8:	85a2                	mv	a1,s0
   119ba:	854a                	mv	a0,s2
   119bc:	cc9ff0ef          	jal	0x11684
   119c0:	f96d                	bnez	a0,0x119b2
   119c2:	6018                	ld	a4,0(s0)
   119c4:	4785                	li	a5,1
   119c6:	bfa5                	j	0x1193e
   119c8:	b6dfe0ef          	jal	0x10534
   119cc:	bf15                	j	0x11900
   119ce:	862e                	mv	a2,a1
   119d0:	85aa                	mv	a1,a0
   119d2:	1881b503          	ld	a0,392(gp)
   119d6:	bf11                	j	0x118ea
   119d8:	1101                	addi	sp,sp,-32
   119da:	e822                	sd	s0,16(sp)
   119dc:	e426                	sd	s1,8(sp)
   119de:	ec06                	sd	ra,24(sp)
   119e0:	1881b783          	ld	a5,392(gp)
   119e4:	84aa                	mv	s1,a0
   119e6:	842e                	mv	s0,a1
   119e8:	c399                	beqz	a5,0x119ee
   119ea:	67b8                	ld	a4,72(a5)
   119ec:	c75d                	beqz	a4,0x11a9a
   119ee:	01041783          	lh	a5,16(s0)
   119f2:	0087f713          	andi	a4,a5,8
   119f6:	c721                	beqz	a4,0x11a3e
   119f8:	6c18                	ld	a4,24(s0)
   119fa:	cf31                	beqz	a4,0x11a56
   119fc:	0017f693          	andi	a3,a5,1
   11a00:	ce91                	beqz	a3,0x11a1c
   11a02:	5014                	lw	a3,32(s0)
   11a04:	00042623          	sw	zero,12(s0)
   11a08:	4501                	li	a0,0
   11a0a:	40d006bb          	negw	a3,a3
   11a0e:	d414                	sw	a3,40(s0)
   11a10:	cf11                	beqz	a4,0x11a2c
   11a12:	60e2                	ld	ra,24(sp)
   11a14:	6442                	ld	s0,16(sp)
   11a16:	64a2                	ld	s1,8(sp)
   11a18:	6105                	addi	sp,sp,32
   11a1a:	8082                	ret
   11a1c:	0027f693          	andi	a3,a5,2
   11a20:	4601                	li	a2,0
   11a22:	e291                	bnez	a3,0x11a26
   11a24:	5010                	lw	a2,32(s0)
   11a26:	c450                	sw	a2,12(s0)
   11a28:	4501                	li	a0,0
   11a2a:	f765                	bnez	a4,0x11a12
   11a2c:	0807f713          	andi	a4,a5,128
   11a30:	d36d                	beqz	a4,0x11a12
   11a32:	0407e793          	ori	a5,a5,64
   11a36:	00f41823          	sh	a5,16(s0)
   11a3a:	557d                	li	a0,-1
   11a3c:	bfd9                	j	0x11a12
   11a3e:	0107f713          	andi	a4,a5,16
   11a42:	c325                	beqz	a4,0x11aa2
   11a44:	0047f713          	andi	a4,a5,4
   11a48:	e70d                	bnez	a4,0x11a72
   11a4a:	6c18                	ld	a4,24(s0)
   11a4c:	0087e793          	ori	a5,a5,8
   11a50:	00f41823          	sh	a5,16(s0)
   11a54:	f745                	bnez	a4,0x119fc
   11a56:	2807f693          	andi	a3,a5,640
   11a5a:	20000613          	li	a2,512
   11a5e:	f8c68fe3          	beq	a3,a2,0x119fc
   11a62:	85a2                	mv	a1,s0
   11a64:	8526                	mv	a0,s1
   11a66:	150000ef          	jal	0x11bb6
   11a6a:	01041783          	lh	a5,16(s0)
   11a6e:	6c18                	ld	a4,24(s0)
   11a70:	b771                	j	0x119fc
   11a72:	6c2c                	ld	a1,88(s0)
   11a74:	cd81                	beqz	a1,0x11a8c
   11a76:	07440713          	addi	a4,s0,116
   11a7a:	00e58763          	beq	a1,a4,0x11a88
   11a7e:	8526                	mv	a0,s1
   11a80:	90eff0ef          	jal	0x10b8e
   11a84:	01041783          	lh	a5,16(s0)
   11a88:	04043c23          	sd	zero,88(s0)
   11a8c:	6c18                	ld	a4,24(s0)
   11a8e:	fdb7f793          	andi	a5,a5,-37
   11a92:	00042423          	sw	zero,8(s0)
   11a96:	e018                	sd	a4,0(s0)
   11a98:	bf55                	j	0x11a4c
   11a9a:	853e                	mv	a0,a5
   11a9c:	a99fe0ef          	jal	0x10534
   11aa0:	b7b9                	j	0x119ee
   11aa2:	4725                	li	a4,9
   11aa4:	c098                	sw	a4,0(s1)
   11aa6:	0407e793          	ori	a5,a5,64
   11aaa:	00f41823          	sh	a5,16(s0)
   11aae:	557d                	li	a0,-1
   11ab0:	b78d                	j	0x11a12
   11ab2:	1141                	addi	sp,sp,-16
   11ab4:	e022                	sd	s0,0(sp)
   11ab6:	842a                	mv	s0,a0
   11ab8:	852e                	mv	a0,a1
   11aba:	1a01a823          	sw	zero,432(gp)
   11abe:	e406                	sd	ra,8(sp)
   11ac0:	404000ef          	jal	0x11ec4
   11ac4:	57fd                	li	a5,-1
   11ac6:	00f50663          	beq	a0,a5,0x11ad2
   11aca:	60a2                	ld	ra,8(sp)
   11acc:	6402                	ld	s0,0(sp)
   11ace:	0141                	addi	sp,sp,16
   11ad0:	8082                	ret
   11ad2:	1b01a783          	lw	a5,432(gp)
   11ad6:	dbf5                	beqz	a5,0x11aca
   11ad8:	60a2                	ld	ra,8(sp)
   11ada:	c01c                	sw	a5,0(s0)
   11adc:	6402                	ld	s0,0(sp)
   11ade:	0141                	addi	sp,sp,16
   11ae0:	8082                	ret
   11ae2:	1101                	addi	sp,sp,-32
   11ae4:	e822                	sd	s0,16(sp)
   11ae6:	00000797          	auipc	a5,0x0
   11aea:	53278793          	addi	a5,a5,1330 # 0x12018
   11aee:	00000417          	auipc	s0,0x0
   11af2:	53240413          	addi	s0,s0,1330 # 0x12020
   11af6:	8c1d                	sub	s0,s0,a5
   11af8:	e426                	sd	s1,8(sp)
   11afa:	ec06                	sd	ra,24(sp)
   11afc:	40345493          	srai	s1,s0,0x3
   11b00:	c881                	beqz	s1,0x11b10
   11b02:	1461                	addi	s0,s0,-8
   11b04:	943e                	add	s0,s0,a5
   11b06:	601c                	ld	a5,0(s0)
   11b08:	14fd                	addi	s1,s1,-1
   11b0a:	1461                	addi	s0,s0,-8
   11b0c:	9782                	jalr	a5
   11b0e:	fce5                	bnez	s1,0x11b06
   11b10:	60e2                	ld	ra,24(sp)
   11b12:	6442                	ld	s0,16(sp)
   11b14:	64a2                	ld	s1,8(sp)
   11b16:	6105                	addi	sp,sp,32
   11b18:	8082                	ret
   11b1a:	7179                	addi	sp,sp,-48
   11b1c:	e052                	sd	s4,0(sp)
   11b1e:	19018a13          	addi	s4,gp,400
   11b22:	f022                	sd	s0,32(sp)
   11b24:	842a                	mv	s0,a0
   11b26:	000a3503          	ld	a0,0(s4)
   11b2a:	ec26                	sd	s1,24(sp)
   11b2c:	e84a                	sd	s2,16(sp)
   11b2e:	e44e                	sd	s3,8(sp)
   11b30:	f406                	sd	ra,40(sp)
   11b32:	84ae                	mv	s1,a1
   11b34:	89b2                	mv	s3,a2
   11b36:	8936                	mv	s2,a3
   11b38:	dd9fe0ef          	jal	0x10910
   11b3c:	1f818713          	addi	a4,gp,504
   11b40:	631c                	ld	a5,0(a4)
   11b42:	c3b5                	beqz	a5,0x11ba6
   11b44:	4798                	lw	a4,8(a5)
   11b46:	46fd                	li	a3,31
   11b48:	000a3503          	ld	a0,0(s4)
   11b4c:	06e6c163          	blt	a3,a4,0x11bae
   11b50:	e01d                	bnez	s0,0x11b76
   11b52:	00270693          	addi	a3,a4,2
   11b56:	068e                	slli	a3,a3,0x3
   11b58:	2705                	addiw	a4,a4,1
   11b5a:	c798                	sw	a4,8(a5)
   11b5c:	97b6                	add	a5,a5,a3
   11b5e:	e384                	sd	s1,0(a5)
   11b60:	dbdfe0ef          	jal	0x1091c
   11b64:	4501                	li	a0,0
   11b66:	70a2                	ld	ra,40(sp)
   11b68:	7402                	ld	s0,32(sp)
   11b6a:	64e2                	ld	s1,24(sp)
   11b6c:	6942                	ld	s2,16(sp)
   11b6e:	69a2                	ld	s3,8(sp)
   11b70:	6a02                	ld	s4,0(sp)
   11b72:	6145                	addi	sp,sp,48
   11b74:	8082                	ret
   11b76:	00371693          	slli	a3,a4,0x3
   11b7a:	96be                	add	a3,a3,a5
   11b7c:	1136b823          	sd	s3,272(a3)
   11b80:	3107a583          	lw	a1,784(a5)
   11b84:	4605                	li	a2,1
   11b86:	00e6163b          	sllw	a2,a2,a4
   11b8a:	8dd1                	or	a1,a1,a2
   11b8c:	30b7a823          	sw	a1,784(a5)
   11b90:	2126b823          	sd	s2,528(a3)
   11b94:	4689                	li	a3,2
   11b96:	fad41ee3          	bne	s0,a3,0x11b52
   11b9a:	3147a683          	lw	a3,788(a5)
   11b9e:	8ed1                	or	a3,a3,a2
   11ba0:	30d7aa23          	sw	a3,788(a5)
   11ba4:	b77d                	j	0x11b52
   11ba6:	4a818793          	addi	a5,gp,1192
   11baa:	e31c                	sd	a5,0(a4)
   11bac:	bf61                	j	0x11b44
   11bae:	d6ffe0ef          	jal	0x1091c
   11bb2:	557d                	li	a0,-1
   11bb4:	bf4d                	j	0x11b66
   11bb6:	01059783          	lh	a5,16(a1)
   11bba:	7135                	addi	sp,sp,-160
   11bbc:	e922                	sd	s0,144(sp)
   11bbe:	ed06                	sd	ra,152(sp)
   11bc0:	0027f713          	andi	a4,a5,2
   11bc4:	842e                	mv	s0,a1
   11bc6:	cb19                	beqz	a4,0x11bdc
   11bc8:	07758793          	addi	a5,a1,119
   11bcc:	e19c                	sd	a5,0(a1)
   11bce:	ed9c                	sd	a5,24(a1)
   11bd0:	4785                	li	a5,1
   11bd2:	d19c                	sw	a5,32(a1)
   11bd4:	60ea                	ld	ra,152(sp)
   11bd6:	644a                	ld	s0,144(sp)
   11bd8:	610d                	addi	sp,sp,160
   11bda:	8082                	ret
   11bdc:	01259583          	lh	a1,18(a1)
   11be0:	e526                	sd	s1,136(sp)
   11be2:	e14a                	sd	s2,128(sp)
   11be4:	fcce                	sd	s3,120(sp)
   11be6:	f8d2                	sd	s4,112(sp)
   11be8:	84aa                	mv	s1,a0
   11bea:	0605c463          	bltz	a1,0x11c52
   11bee:	0030                	addi	a2,sp,8
   11bf0:	164000ef          	jal	0x11d54
   11bf4:	04054d63          	bltz	a0,0x11c4e
   11bf8:	4932                	lw	s2,12(sp)
   11bfa:	67bd                	lui	a5,0xf
   11bfc:	6985                	lui	s3,0x1
   11bfe:	00f97933          	and	s2,s2,a5
   11c02:	6789                	lui	a5,0x2
   11c04:	40f90933          	sub	s2,s2,a5
   11c08:	00193913          	seqz	s2,s2
   11c0c:	40000a13          	li	s4,1024
   11c10:	80098993          	addi	s3,s3,-2048 # 0x800
   11c14:	85d2                	mv	a1,s4
   11c16:	8526                	mv	a0,s1
   11c18:	9c2ff0ef          	jal	0x10dda
   11c1c:	01041783          	lh	a5,16(s0)
   11c20:	c539                	beqz	a0,0x11c6e
   11c22:	0807e793          	ori	a5,a5,128
   11c26:	e008                	sd	a0,0(s0)
   11c28:	ec08                	sd	a0,24(s0)
   11c2a:	00f41823          	sh	a5,16(s0)
   11c2e:	03442023          	sw	s4,32(s0)
   11c32:	06091563          	bnez	s2,0x11c9c
   11c36:	0137e7b3          	or	a5,a5,s3
   11c3a:	60ea                	ld	ra,152(sp)
   11c3c:	00f41823          	sh	a5,16(s0)
   11c40:	644a                	ld	s0,144(sp)
   11c42:	64aa                	ld	s1,136(sp)
   11c44:	690a                	ld	s2,128(sp)
   11c46:	79e6                	ld	s3,120(sp)
   11c48:	7a46                	ld	s4,112(sp)
   11c4a:	610d                	addi	sp,sp,160
   11c4c:	8082                	ret
   11c4e:	01041783          	lh	a5,16(s0)
   11c52:	0807f793          	andi	a5,a5,128
   11c56:	4901                	li	s2,0
   11c58:	cf95                	beqz	a5,0x11c94
   11c5a:	04000a13          	li	s4,64
   11c5e:	85d2                	mv	a1,s4
   11c60:	8526                	mv	a0,s1
   11c62:	978ff0ef          	jal	0x10dda
   11c66:	01041783          	lh	a5,16(s0)
   11c6a:	4981                	li	s3,0
   11c6c:	f95d                	bnez	a0,0x11c22
   11c6e:	2007f713          	andi	a4,a5,512
   11c72:	ef15                	bnez	a4,0x11cae
   11c74:	9bf1                	andi	a5,a5,-4
   11c76:	0027e793          	ori	a5,a5,2
   11c7a:	07740713          	addi	a4,s0,119
   11c7e:	00f41823          	sh	a5,16(s0)
   11c82:	4785                	li	a5,1
   11c84:	64aa                	ld	s1,136(sp)
   11c86:	690a                	ld	s2,128(sp)
   11c88:	79e6                	ld	s3,120(sp)
   11c8a:	7a46                	ld	s4,112(sp)
   11c8c:	e018                	sd	a4,0(s0)
   11c8e:	ec18                	sd	a4,24(s0)
   11c90:	d01c                	sw	a5,32(s0)
   11c92:	b789                	j	0x11bd4
   11c94:	40000a13          	li	s4,1024
   11c98:	4981                	li	s3,0
   11c9a:	bfad                	j	0x11c14
   11c9c:	01241583          	lh	a1,18(s0)
   11ca0:	8526                	mv	a0,s1
   11ca2:	0e6000ef          	jal	0x11d88
   11ca6:	e909                	bnez	a0,0x11cb8
   11ca8:	01041783          	lh	a5,16(s0)
   11cac:	b769                	j	0x11c36
   11cae:	64aa                	ld	s1,136(sp)
   11cb0:	690a                	ld	s2,128(sp)
   11cb2:	79e6                	ld	s3,120(sp)
   11cb4:	7a46                	ld	s4,112(sp)
   11cb6:	bf39                	j	0x11bd4
   11cb8:	01045783          	lhu	a5,16(s0)
   11cbc:	9bf1                	andi	a5,a5,-4
   11cbe:	0017e793          	ori	a5,a5,1
   11cc2:	0107979b          	slliw	a5,a5,0x10
   11cc6:	4107d79b          	sraiw	a5,a5,0x10
   11cca:	b7b5                	j	0x11c36
   11ccc:	7175                	addi	sp,sp,-144
   11cce:	e122                	sd	s0,128(sp)
   11cd0:	842e                	mv	s0,a1
   11cd2:	01259583          	lh	a1,18(a1)
   11cd6:	fca6                	sd	s1,120(sp)
   11cd8:	f8ca                	sd	s2,112(sp)
   11cda:	e506                	sd	ra,136(sp)
   11cdc:	84b2                	mv	s1,a2
   11cde:	8936                	mv	s2,a3
   11ce0:	0205cc63          	bltz	a1,0x11d18
   11ce4:	0030                	addi	a2,sp,8
   11ce6:	06e000ef          	jal	0x11d54
   11cea:	02054763          	bltz	a0,0x11d18
   11cee:	47b2                	lw	a5,12(sp)
   11cf0:	673d                	lui	a4,0xf
   11cf2:	60aa                	ld	ra,136(sp)
   11cf4:	8ff9                	and	a5,a5,a4
   11cf6:	6709                	lui	a4,0x2
   11cf8:	8f99                	sub	a5,a5,a4
   11cfa:	640a                	ld	s0,128(sp)
   11cfc:	0017b793          	seqz	a5,a5
   11d00:	00f92023          	sw	a5,0(s2)
   11d04:	40000713          	li	a4,1024
   11d08:	e098                	sd	a4,0(s1)
   11d0a:	6505                	lui	a0,0x1
   11d0c:	74e6                	ld	s1,120(sp)
   11d0e:	7946                	ld	s2,112(sp)
   11d10:	80050513          	addi	a0,a0,-2048 # 0x800
   11d14:	6149                	addi	sp,sp,144
   11d16:	8082                	ret
   11d18:	01045783          	lhu	a5,16(s0)
   11d1c:	0807f793          	andi	a5,a5,128
   11d20:	cf91                	beqz	a5,0x11d3c
   11d22:	60aa                	ld	ra,136(sp)
   11d24:	640a                	ld	s0,128(sp)
   11d26:	4781                	li	a5,0
   11d28:	00f92023          	sw	a5,0(s2)
   11d2c:	04000713          	li	a4,64
   11d30:	e098                	sd	a4,0(s1)
   11d32:	7946                	ld	s2,112(sp)
   11d34:	74e6                	ld	s1,120(sp)
   11d36:	4501                	li	a0,0
   11d38:	6149                	addi	sp,sp,144
   11d3a:	8082                	ret
   11d3c:	60aa                	ld	ra,136(sp)
   11d3e:	640a                	ld	s0,128(sp)
   11d40:	00f92023          	sw	a5,0(s2)
   11d44:	40000713          	li	a4,1024
   11d48:	e098                	sd	a4,0(s1)
   11d4a:	7946                	ld	s2,112(sp)
   11d4c:	74e6                	ld	s1,120(sp)
   11d4e:	4501                	li	a0,0
   11d50:	6149                	addi	sp,sp,144
   11d52:	8082                	ret
   11d54:	1141                	addi	sp,sp,-16
   11d56:	872e                	mv	a4,a1
   11d58:	e022                	sd	s0,0(sp)
   11d5a:	85b2                	mv	a1,a2
   11d5c:	842a                	mv	s0,a0
   11d5e:	853a                	mv	a0,a4
   11d60:	1a01a823          	sw	zero,432(gp)
   11d64:	e406                	sd	ra,8(sp)
   11d66:	0a0000ef          	jal	0x11e06
   11d6a:	57fd                	li	a5,-1
   11d6c:	00f50663          	beq	a0,a5,0x11d78
   11d70:	60a2                	ld	ra,8(sp)
   11d72:	6402                	ld	s0,0(sp)
   11d74:	0141                	addi	sp,sp,16
   11d76:	8082                	ret
   11d78:	1b01a783          	lw	a5,432(gp)
   11d7c:	dbf5                	beqz	a5,0x11d70
   11d7e:	60a2                	ld	ra,8(sp)
   11d80:	c01c                	sw	a5,0(s0)
   11d82:	6402                	ld	s0,0(sp)
   11d84:	0141                	addi	sp,sp,16
   11d86:	8082                	ret
   11d88:	1141                	addi	sp,sp,-16
   11d8a:	e022                	sd	s0,0(sp)
   11d8c:	842a                	mv	s0,a0
   11d8e:	852e                	mv	a0,a1
   11d90:	1a01a823          	sw	zero,432(gp)
   11d94:	e406                	sd	ra,8(sp)
   11d96:	0b0000ef          	jal	0x11e46
   11d9a:	57fd                	li	a5,-1
   11d9c:	00f50663          	beq	a0,a5,0x11da8
   11da0:	60a2                	ld	ra,8(sp)
   11da2:	6402                	ld	s0,0(sp)
   11da4:	0141                	addi	sp,sp,16
   11da6:	8082                	ret
   11da8:	1b01a783          	lw	a5,432(gp)
   11dac:	dbf5                	beqz	a5,0x11da0
   11dae:	60a2                	ld	ra,8(sp)
   11db0:	c01c                	sw	a5,0(s0)
   11db2:	6402                	ld	s0,0(sp)
   11db4:	0141                	addi	sp,sp,16
   11db6:	8082                	ret
   11db8:	1141                	addi	sp,sp,-16
   11dba:	e406                	sd	ra,8(sp)
   11dbc:	e022                	sd	s0,0(sp)
   11dbe:	03900893          	li	a7,57
   11dc2:	00000073          	ecall
   11dc6:	842a                	mv	s0,a0
   11dc8:	00054763          	bltz	a0,0x11dd6
   11dcc:	2501                	sext.w	a0,a0
   11dce:	60a2                	ld	ra,8(sp)
   11dd0:	6402                	ld	s0,0(sp)
   11dd2:	0141                	addi	sp,sp,16
   11dd4:	8082                	ret
   11dd6:	1b8000ef          	jal	0x11f8e
   11dda:	4080043b          	negw	s0,s0
   11dde:	c100                	sw	s0,0(a0)
   11de0:	557d                	li	a0,-1
   11de2:	b7f5                	j	0x11dce
   11de4:	05d00893          	li	a7,93
   11de8:	00000073          	ecall
   11dec:	00054363          	bltz	a0,0x11df2
   11df0:	a001                	j	0x11df0
   11df2:	1141                	addi	sp,sp,-16
   11df4:	e022                	sd	s0,0(sp)
   11df6:	842a                	mv	s0,a0
   11df8:	e406                	sd	ra,8(sp)
   11dfa:	4080043b          	negw	s0,s0
   11dfe:	190000ef          	jal	0x11f8e
   11e02:	c100                	sw	s0,0(a0)
   11e04:	a001                	j	0x11e04
   11e06:	7135                	addi	sp,sp,-160
   11e08:	e526                	sd	s1,136(sp)
   11e0a:	ed06                	sd	ra,152(sp)
   11e0c:	84ae                	mv	s1,a1
   11e0e:	e922                	sd	s0,144(sp)
   11e10:	05000893          	li	a7,80
   11e14:	858a                	mv	a1,sp
   11e16:	00000073          	ecall
   11e1a:	842a                	mv	s0,a0
   11e1c:	00054e63          	bltz	a0,0x11e38
   11e20:	0005041b          	sext.w	s0,a0
   11e24:	8526                	mv	a0,s1
   11e26:	858a                	mv	a1,sp
   11e28:	118000ef          	jal	0x11f40
   11e2c:	60ea                	ld	ra,152(sp)
   11e2e:	8522                	mv	a0,s0
   11e30:	644a                	ld	s0,144(sp)
   11e32:	64aa                	ld	s1,136(sp)
   11e34:	610d                	addi	sp,sp,160
   11e36:	8082                	ret
   11e38:	4080043b          	negw	s0,s0
   11e3c:	152000ef          	jal	0x11f8e
   11e40:	c100                	sw	s0,0(a0)
   11e42:	547d                	li	s0,-1
   11e44:	b7c5                	j	0x11e24
   11e46:	7119                	addi	sp,sp,-128
   11e48:	002c                	addi	a1,sp,8
   11e4a:	fc86                	sd	ra,120(sp)
   11e4c:	fbbff0ef          	jal	0x11e06
   11e50:	57fd                	li	a5,-1
   11e52:	00f50963          	beq	a0,a5,0x11e64
   11e56:	4532                	lw	a0,12(sp)
   11e58:	70e6                	ld	ra,120(sp)
   11e5a:	40d5551b          	sraiw	a0,a0,0xd
   11e5e:	8905                	andi	a0,a0,1
   11e60:	6109                	addi	sp,sp,128
   11e62:	8082                	ret
   11e64:	70e6                	ld	ra,120(sp)
   11e66:	4501                	li	a0,0
   11e68:	6109                	addi	sp,sp,128
   11e6a:	8082                	ret
   11e6c:	1141                	addi	sp,sp,-16
   11e6e:	e406                	sd	ra,8(sp)
   11e70:	e022                	sd	s0,0(sp)
   11e72:	03e00893          	li	a7,62
   11e76:	00000073          	ecall
   11e7a:	842a                	mv	s0,a0
   11e7c:	00054763          	bltz	a0,0x11e8a
   11e80:	60a2                	ld	ra,8(sp)
   11e82:	8522                	mv	a0,s0
   11e84:	6402                	ld	s0,0(sp)
   11e86:	0141                	addi	sp,sp,16
   11e88:	8082                	ret
   11e8a:	4080043b          	negw	s0,s0
   11e8e:	100000ef          	jal	0x11f8e
   11e92:	c100                	sw	s0,0(a0)
   11e94:	547d                	li	s0,-1
   11e96:	b7ed                	j	0x11e80
   11e98:	1141                	addi	sp,sp,-16
   11e9a:	e406                	sd	ra,8(sp)
   11e9c:	e022                	sd	s0,0(sp)
   11e9e:	03f00893          	li	a7,63
   11ea2:	00000073          	ecall
   11ea6:	842a                	mv	s0,a0
   11ea8:	00054763          	bltz	a0,0x11eb6
   11eac:	60a2                	ld	ra,8(sp)
   11eae:	8522                	mv	a0,s0
   11eb0:	6402                	ld	s0,0(sp)
   11eb2:	0141                	addi	sp,sp,16
   11eb4:	8082                	ret
   11eb6:	4080043b          	negw	s0,s0
   11eba:	0d4000ef          	jal	0x11f8e
   11ebe:	c100                	sw	s0,0(a0)
   11ec0:	547d                	li	s0,-1
   11ec2:	b7ed                	j	0x11eac
   11ec4:	21818693          	addi	a3,gp,536
   11ec8:	6298                	ld	a4,0(a3)
   11eca:	1141                	addi	sp,sp,-16
   11ecc:	e406                	sd	ra,8(sp)
   11ece:	87aa                	mv	a5,a0
   11ed0:	eb19                	bnez	a4,0x11ee6
   11ed2:	0d600893          	li	a7,214
   11ed6:	4501                	li	a0,0
   11ed8:	00000073          	ecall
   11edc:	567d                	li	a2,-1
   11ede:	872a                	mv	a4,a0
   11ee0:	02c50263          	beq	a0,a2,0x11f04
   11ee4:	e288                	sd	a0,0(a3)
   11ee6:	0d600893          	li	a7,214
   11eea:	00e78533          	add	a0,a5,a4
   11eee:	00000073          	ecall
   11ef2:	6298                	ld	a4,0(a3)
   11ef4:	97ba                	add	a5,a5,a4
   11ef6:	00f51763          	bne	a0,a5,0x11f04
   11efa:	60a2                	ld	ra,8(sp)
   11efc:	e288                	sd	a0,0(a3)
   11efe:	853a                	mv	a0,a4
   11f00:	0141                	addi	sp,sp,16
   11f02:	8082                	ret
   11f04:	08a000ef          	jal	0x11f8e
   11f08:	60a2                	ld	ra,8(sp)
   11f0a:	47b1                	li	a5,12
   11f0c:	c11c                	sw	a5,0(a0)
   11f0e:	557d                	li	a0,-1
   11f10:	0141                	addi	sp,sp,16
   11f12:	8082                	ret
   11f14:	1141                	addi	sp,sp,-16
   11f16:	e406                	sd	ra,8(sp)
   11f18:	e022                	sd	s0,0(sp)
   11f1a:	04000893          	li	a7,64
   11f1e:	00000073          	ecall
   11f22:	842a                	mv	s0,a0
   11f24:	00054763          	bltz	a0,0x11f32
   11f28:	60a2                	ld	ra,8(sp)
   11f2a:	8522                	mv	a0,s0
   11f2c:	6402                	ld	s0,0(sp)
   11f2e:	0141                	addi	sp,sp,16
   11f30:	8082                	ret
   11f32:	4080043b          	negw	s0,s0
   11f36:	058000ef          	jal	0x11f8e
   11f3a:	c100                	sw	s0,0(a0)
   11f3c:	547d                	li	s0,-1
   11f3e:	b7ed                	j	0x11f28
   11f40:	0185d703          	lhu	a4,24(a1)
   11f44:	0145d783          	lhu	a5,20(a1)
   11f48:	4dd0                	lw	a2,28(a1)
   11f4a:	7194                	ld	a3,32(a1)
   11f4c:	0005b303          	ld	t1,0(a1)
   11f50:	0085b883          	ld	a7,8(a1)
   11f54:	0105a803          	lw	a6,16(a1)
   11f58:	0107171b          	slliw	a4,a4,0x10
   11f5c:	8fd9                	or	a5,a5,a4
   11f5e:	00c51623          	sh	a2,12(a0)
   11f62:	00d51723          	sh	a3,14(a0)
   11f66:	00651023          	sh	t1,0(a0)
   11f6a:	01151123          	sh	a7,2(a0)
   11f6e:	01052223          	sw	a6,4(a0)
   11f72:	c51c                	sw	a5,8(a0)
   11f74:	7998                	ld	a4,48(a1)
   11f76:	65bc                	ld	a5,72(a1)
   11f78:	61b0                	ld	a2,64(a1)
   11f7a:	5d94                	lw	a3,56(a1)
   11f7c:	e918                	sd	a4,16(a0)
   11f7e:	ed1c                	sd	a5,24(a0)
   11f80:	6db8                	ld	a4,88(a1)
   11f82:	75bc                	ld	a5,104(a1)
   11f84:	e930                	sd	a2,80(a0)
   11f86:	e534                	sd	a3,72(a0)
   11f88:	f518                	sd	a4,40(a0)
   11f8a:	fd1c                	sd	a5,56(a0)
   11f8c:	8082                	ret
   11f8e:	1881b503          	ld	a0,392(gp)
   11f92:	8082                	ret
